	.file	"nbb.c"
	.text
.Ltext0:
	.section	.rodata
	.align 16
	.type	NAMESERVER_PID_FILE, @object
	.size	NAMESERVER_PID_FILE, 20
NAMESERVER_PID_FILE:
	.string	"/tmp/nameserver_pid"
	.align 16
	.type	NAMESERVER_CHANNEL_FULL, @object
	.size	NAMESERVER_CHANNEL_FULL, 16
NAMESERVER_CHANNEL_FULL:
	.string	"Nameserver Full"
	.align 16
	.type	UNKNOWN_SERVICE, @object
	.size	UNKNOWN_SERVICE, 16
UNKNOWN_SERVICE:
	.string	"Unknown Service"
	.align 16
	.type	SERVICE_BUSY, @object
	.size	SERVICE_BUSY, 17
SERVICE_BUSY:
	.string	"Service Too Busy"
	.type	SERVICE, @object
	.size	SERVICE, 2
SERVICE:
	.string	"0"
	.type	CLIENT, @object
	.size	CLIENT, 2
CLIENT:
	.string	"1"
	.type	GUI, @object
	.size	GUI, 4
GUI:
	.string	"GUI"
.globl channel_list
	.bss
	.align 32
	.type	channel_list, @object
	.size	channel_list, 1320
channel_list:
	.zero	1320
.globl connected_nodes
	.align 32
	.type	connected_nodes, @object
	.size	connected_nodes, 240
connected_nodes:
	.zero	240
	.comm	delay_buffers,360,32
	.comm	sem_id,8,8
	.section	.rodata
.LC0:
	.string	"nbb.c"
	.align 8
.LC1:
	.string	"request != ((void *)0) && ret != ((void *)0) && ret_len != ((void *)0)"
.LC2:
	.string	"r+"
.LC3:
	.string	"%d"
	.text
.globl nbb_nameserver_connect
	.type	nbb_nameserver_connect, @function
nbb_nameserver_connect:
.LFB0:
	.file 1 "nbb.c"
	.loc 1 20 0
	.cfi_startproc
	pushq	%rbp
.LCFI0:
	.cfi_def_cfa_offset 16
	movq	%rsp, %rbp
	.cfi_offset 6, -16
.LCFI1:
	.cfi_def_cfa_register 6
	subq	$64, %rsp
	movq	%rdi, -40(%rbp)
	movq	%rsi, -48(%rbp)
	movq	%rdx, -56(%rbp)
	.loc 1 21 0
	movl	$0, -4(%rbp)
	.loc 1 28 0
	cmpq	$0, -40(%rbp)
	je	.L2
	cmpq	$0, -48(%rbp)
	je	.L2
	cmpq	$0, -56(%rbp)
	jne	.L3
.L2:
	leaq	__PRETTY_FUNCTION__.3491(%rip), %rcx
	movl	$28, %edx
	leaq	.LC0(%rip), %rsi
	leaq	.LC1(%rip), %rdi
	call	__assert_fail@PLT
.L3:
	.loc 1 29 0
	movq	-48(%rbp), %rax
	movq	$0, (%rax)
	.loc 1 30 0
	movq	-56(%rbp), %rax
	movl	$0, (%rax)
	.loc 1 33 0
	movl	$0, %ecx
	movl	$4001, %edx
	movl	$4000, %esi
	movl	$0, %edi
	call	nbb_open_channel@PLT
	testl	%eax, %eax
	je	.L4
	.loc 1 34 0
	movl	$-1, %eax
	jmp	.L5
.L4:
	.loc 1 37 0
	leaq	.LC2(%rip), %rax
	movq	%rax, %rsi
	leaq	NAMESERVER_PID_FILE(%rip), %rdi
	call	fopen@PLT
	movq	%rax, -16(%rbp)
	.loc 1 38 0
	leaq	.LC3(%rip), %rcx
	leaq	-4(%rbp), %rdx
	movq	-16(%rbp), %rax
	movq	%rcx, %rsi
	movq	%rax, %rdi
	movl	$0, %eax
	call	fscanf@PLT
	.loc 1 39 0
	movq	-16(%rbp), %rax
	movq	%rax, %rdi
	call	fclose@PLT
	.loc 1 41 0
	movq	-40(%rbp), %rax
	movq	%rax, %rdi
	call	strlen@PLT
	movq	%rax, %rdx
	movq	-40(%rbp), %rax
	movq	%rax, %rsi
	movl	$0, %edi
	call	nbb_insert_item@PLT
	.loc 1 42 0
	call	__libc_current_sigrtmax@PLT
	movl	%eax, %edx
	movl	-4(%rbp), %eax
	movl	%edx, %esi
	movl	%eax, %edi
	call	kill@PLT
.L6:
	.loc 1 46 0
	leaq	-24(%rbp), %rax
	leaq	-32(%rbp), %rdx
	movq	%rax, %rsi
	movl	$0, %edi
	call	nbb_read_item@PLT
	movl	%eax, -8(%rbp)
	.loc 1 47 0
	cmpl	$3, -8(%rbp)
	je	.L6
	cmpl	$4, -8(%rbp)
	je	.L6
	.loc 1 50 0
	movq	-24(%rbp), %rdx
	movq	-48(%rbp), %rax
	movq	%rdx, (%rax)
	.loc 1 51 0
	movq	-32(%rbp), %rax
	movl	%eax, %edx
	movq	-56(%rbp), %rax
	movl	%edx, (%rax)
	.loc 1 54 0
	movl	$0, %eax
.L5:
	.loc 1 55 0
	leave
	ret
	.cfi_endproc
.LFE0:
	.size	nbb_nameserver_connect, .-nbb_nameserver_connect
	.section	.rodata
.LC4:
	.string	"/1337"
.LC5:
	.string	"! Unable to obtain semaphore\n"
.LC6:
	.string	"! Unable to open channel"
.LC7:
	.string	"w+"
	.text
.globl init_nameserver
	.type	init_nameserver, @function
init_nameserver:
.LFB1:
	.loc 1 58 0
	.cfi_startproc
	pushq	%rbp
.LCFI2:
	.cfi_def_cfa_offset 16
	movq	%rsp, %rbp
	.cfi_offset 6, -16
.LCFI3:
	.cfi_def_cfa_register 6
	subq	$16, %rsp
	.loc 1 62 0
	movl	$1, %ecx
	movl	$438, %edx
	movl	$64, %esi
	leaq	.LC4(%rip), %rdi
	movl	$0, %eax
	call	sem_open@PLT
	movq	sem_id@GOTPCREL(%rip), %rdx
	movq	%rax, (%rdx)
	.loc 1 63 0
	movq	sem_id@GOTPCREL(%rip), %rax
	movq	(%rax), %rax
	testq	%rax, %rax
	jne	.L9
	.loc 1 64 0
	leaq	.LC5(%rip), %rdi
	call	perror@PLT
	.loc 1 65 0
	movl	$-1, %eax
	jmp	.L10
.L9:
	.loc 1 68 0
	movl	$512, %ecx
	movl	$4000, %edx
	movl	$4001, %esi
	movl	$0, %edi
	call	nbb_open_channel@PLT
	testl	%eax, %eax
	je	.L11
	.loc 1 69 0
	leaq	.LC6(%rip), %rdi
	call	puts@PLT
	.loc 1 70 0
	movl	$-1, %eax
	jmp	.L10
.L11:
	.loc 1 73 0
	leaq	.LC7(%rip), %rax
	movq	%rax, %rsi
	leaq	NAMESERVER_PID_FILE(%rip), %rdi
	call	fopen@PLT
	movq	%rax, -8(%rbp)
	.loc 1 74 0
	call	getpid@PLT
	movl	%eax, %edx
	leaq	.LC3(%rip), %rcx
	movq	-8(%rbp), %rax
	movq	%rcx, %rsi
	movq	%rax, %rdi
	movl	$0, %eax
	call	fprintf@PLT
	.loc 1 75 0
	movq	-8(%rbp), %rax
	movq	%rax, %rdi
	call	fclose@PLT
	.loc 1 77 0
	movl	$0, %eax
.L10:
	.loc 1 78 0
	leave
	ret
	.cfi_endproc
.LFE1:
	.size	init_nameserver, .-init_nameserver
	.section	.rodata
	.align 8
.LC8:
	.string	"num_channels > 0 && name != ((void *)0)"
	.align 8
.LC9:
	.string	"! nbb_init_service(): Unable to obtain semaphore\n"
.LC10:
	.string	" "
.LC11:
	.string	"request: %s, len: %zu\n"
	.align 8
.LC12:
	.string	"! nbb_init_service(): Could not connect to nameserver"
	.align 8
.LC13:
	.string	"! nbb_init_service(): Reserving channel unsuccessful"
.LC14:
	.string	"recv (%d): %.*s\n"
	.align 8
.LC15:
	.string	"** Acquired the following channels: %.*s\n"
	.align 8
.LC16:
	.string	"! nbb_init_service(): Failed to open the %d-th channel\n"
	.text
.globl nbb_init_service
	.type	nbb_init_service, @function
nbb_init_service:
.LFB2:
	.loc 1 81 0
	.cfi_startproc
	pushq	%rbp
.LCFI4:
	.cfi_def_cfa_offset 16
	movq	%rsp, %rbp
	.cfi_offset 6, -16
.LCFI5:
	.cfi_def_cfa_register 6
	pushq	%rbx
	subq	$1096, %rsp
	movl	%edi, -1092(%rbp)
	movq	%rsi, -1104(%rbp)
	.loc 1 81 0
	movq	%fs:40, %rax
	movq	%rax, -24(%rbp)
	xorl	%eax, %eax
	.loc 1 82 0
	leaq	-1024(%rbp), %rbx
	.cfi_offset 3, -24
	movl	$0, %eax
	movl	$125, %edx
	movq	%rbx, %rdi
	movq	%rdx, %rcx
	rep stosq
	.loc 1 86 0
	cmpl	$0, -1092(%rbp)
	jle	.L14
	cmpq	$0, -1104(%rbp)
	jne	.L15
.L14:
	leaq	__PRETTY_FUNCTION__.3536(%rip), %rcx
	movl	$86, %edx
	leaq	.LC0(%rip), %rsi
	leaq	.LC8(%rip), %rdi
	call	__assert_fail@PLT
.L15:
	.loc 1 88 0
	movl	$0, %esi
	leaq	.LC4(%rip), %rdi
	movl	$0, %eax
	call	sem_open@PLT
	movq	sem_id@GOTPCREL(%rip), %rdx
	movq	%rax, (%rdx)
	.loc 1 89 0
	movq	sem_id@GOTPCREL(%rip), %rax
	movq	(%rax), %rax
	testq	%rax, %rax
	jne	.L16
	.loc 1 90 0
	leaq	.LC9(%rip), %rdi
	call	perror@PLT
	.loc 1 91 0
	movl	$-1, %eax
	jmp	.L17
.L16:
	.loc 1 97 0
	leaq	.LC3(%rip), %rcx
	movl	-1092(%rbp), %edx
	leaq	-1040(%rbp), %rax
	movq	%rcx, %rsi
	movq	%rax, %rdi
	movl	$0, %eax
	call	sprintf@PLT
	.loc 1 98 0
	call	getpid@PLT
	movl	%eax, %edx
	leaq	.LC3(%rip), %rcx
	leaq	-1072(%rbp), %rax
	movq	%rcx, %rsi
	movq	%rax, %rdi
	movl	$0, %eax
	call	sprintf@PLT
	.loc 1 100 0
	leaq	-1024(%rbp), %rax
	movl	$2, %edx
	leaq	SERVICE(%rip), %rsi
	movq	%rax, %rdi
	call	memcpy@PLT
	.loc 1 101 0
	leaq	.LC10(%rip), %rdx
	leaq	-1024(%rbp), %rax
	movq	%rdx, %rsi
	movq	%rax, %rdi
	call	strcat@PLT
	.loc 1 102 0
	movq	-1104(%rbp), %rdx
	leaq	-1024(%rbp), %rax
	movq	%rdx, %rsi
	movq	%rax, %rdi
	call	strcat@PLT
	.loc 1 103 0
	leaq	.LC10(%rip), %rdx
	leaq	-1024(%rbp), %rax
	movq	%rdx, %rsi
	movq	%rax, %rdi
	call	strcat@PLT
	.loc 1 104 0
	leaq	-1040(%rbp), %rdx
	leaq	-1024(%rbp), %rax
	movq	%rdx, %rsi
	movq	%rax, %rdi
	call	strcat@PLT
	.loc 1 105 0
	leaq	.LC10(%rip), %rdx
	leaq	-1024(%rbp), %rax
	movq	%rdx, %rsi
	movq	%rax, %rdi
	call	strcat@PLT
	.loc 1 106 0
	leaq	-1072(%rbp), %rdx
	leaq	-1024(%rbp), %rax
	movq	%rdx, %rsi
	movq	%rax, %rdi
	call	strcat@PLT
	.loc 1 108 0
	leaq	-1024(%rbp), %rax
	movq	%rax, %rdi
	call	strlen@PLT
	movq	%rax, %rdx
	leaq	.LC11(%rip), %rax
	leaq	-1024(%rbp), %rcx
	movq	%rcx, %rsi
	movq	%rax, %rdi
	movl	$0, %eax
	call	printf@PLT
	.loc 1 113 0
	leaq	-1044(%rbp), %rdx
	leaq	-1080(%rbp), %rcx
	leaq	-1024(%rbp), %rax
	movq	%rcx, %rsi
	movq	%rax, %rdi
	call	nbb_nameserver_connect@PLT
	testl	%eax, %eax
	je	.L18
	.loc 1 114 0
	leaq	.LC12(%rip), %rdi
	call	puts@PLT
	.loc 1 115 0
	movq	sem_id@GOTPCREL(%rip), %rax
	movq	(%rax), %rax
	movq	%rax, %rdi
	call	sem_post@PLT
	.loc 1 116 0
	movl	$-1, %eax
	jmp	.L17
.L18:
	.loc 1 119 0
	movq	-1080(%rbp), %rax
	leaq	NAMESERVER_CHANNEL_FULL(%rip), %rsi
	movq	%rax, %rdi
	call	strcmp@PLT
	testl	%eax, %eax
	jne	.L19
	.loc 1 120 0
	leaq	.LC13(%rip), %rdi
	call	puts@PLT
	.loc 1 122 0
	movq	sem_id@GOTPCREL(%rip), %rax
	movq	(%rax), %rax
	movq	%rax, %rdi
	call	sem_post@PLT
	.loc 1 123 0
	movl	$-1, %eax
	jmp	.L17
.L19:
.LBB2:
	.loc 1 126 0
	movq	-1080(%rbp), %rcx
	movl	-1044(%rbp), %edx
	movl	-1044(%rbp), %ebx
	leaq	.LC14(%rip), %rax
	movl	%ebx, %esi
	movq	%rax, %rdi
	movl	$0, %eax
	call	printf@PLT
	.loc 1 127 0
	movq	-1080(%rbp), %rdx
	movl	-1044(%rbp), %ecx
	leaq	.LC15(%rip), %rax
	movl	%ecx, %esi
	movq	%rax, %rdi
	movl	$0, %eax
	call	printf@PLT
	.loc 1 133 0
	leaq	.LC10(%rip), %rdx
	movq	-1080(%rbp), %rax
	movq	%rdx, %rsi
	movq	%rax, %rdi
	call	strtok@PLT
	movq	%rax, -1088(%rbp)
	.loc 1 134 0
	movl	$1, -1048(%rbp)
	jmp	.L20
.L22:
	.loc 1 135 0
	movq	-1088(%rbp), %rax
	movq	%rax, %rdi
	call	atoi@PLT
	movl	%eax, -1052(%rbp)
	.loc 1 136 0
	movl	-1052(%rbp), %eax
	leal	1000(%rax), %edx
	movl	-1052(%rbp), %ebx
	movq	-1104(%rbp), %rax
	movl	$512, %ecx
	movl	%ebx, %esi
	movq	%rax, %rdi
	call	nbb_open_channel@PLT
	cmpl	$-1, %eax
	jne	.L21
	.loc 1 138 0
	leaq	.LC16(%rip), %rax
	movl	-1048(%rbp), %edx
	movl	%edx, %esi
	movq	%rax, %rdi
	movl	$0, %eax
	call	printf@PLT
	.loc 1 139 0
	movq	sem_id@GOTPCREL(%rip), %rax
	movq	(%rax), %rax
	movq	%rax, %rdi
	call	sem_post@PLT
	.loc 1 140 0
	movq	-1080(%rbp), %rax
	movq	%rax, %rdi
	call	free@PLT
	.loc 1 141 0
	movl	$-1, %eax
	jmp	.L17
.L21:
	.loc 1 143 0
	leaq	.LC10(%rip), %rax
	movq	%rax, %rsi
	movl	$0, %edi
	call	strtok@PLT
	movq	%rax, -1088(%rbp)
	.loc 1 134 0
	addl	$1, -1048(%rbp)
.L20:
	movl	-1048(%rbp), %eax
	cmpl	-1092(%rbp), %eax
	jle	.L22
	.loc 1 146 0
	call	__libc_current_sigrtmax@PLT
	movq	nbb_recv_data@GOTPCREL(%rip), %rdx
	movq	%rdx, %rsi
	movl	%eax, %edi
	call	signal@PLT
	.loc 1 148 0
	movq	sem_id@GOTPCREL(%rip), %rax
	movq	(%rax), %rax
	movq	%rax, %rdi
	call	sem_post@PLT
	.loc 1 149 0
	movq	-1080(%rbp), %rax
	movq	%rax, %rdi
	call	free@PLT
	.loc 1 150 0
	movl	$0, %eax
.L17:
.LBE2:
	.loc 1 153 0
	movq	-24(%rbp), %rdx
	xorq	%fs:40, %rdx
	je	.L24
	call	__stack_chk_fail@PLT
.L24:
	addq	$1096, %rsp
	popq	%rbx
	leave
	ret
	.cfi_endproc
.LFE2:
	.size	nbb_init_service, .-nbb_init_service
	.section	.rodata
.LC17:
	.string	"service_name != ((void *)0)"
	.align 8
.LC18:
	.string	"! nbb_connect_service(): Unable to obtain semaphore\n"
	.align 8
.LC19:
	.string	"! nbb_connect_service(): Could not connect to nameserver!"
	.align 8
.LC20:
	.string	"! nbb_connect_service(): Invalid service: %s\n"
	.align 8
.LC21:
	.string	"! nbb_connect_service(): Service %s too busy, not enough channel\n"
.LC22:
	.string	"**Q_Q**"
	.align 8
.LC23:
	.string	"! nbb_connect_service(): Can't notify service '%s' of new connection\n"
	.align 8
.LC24:
	.string	"** Connecting to service successful, channel: %d service pid: %d\n"
	.text
.globl nbb_connect_service
	.type	nbb_connect_service, @function
nbb_connect_service:
.LFB3:
	.loc 1 158 0
	.cfi_startproc
	pushq	%rbp
.LCFI6:
	.cfi_def_cfa_offset 16
	movq	%rsp, %rbp
	.cfi_offset 6, -16
.LCFI7:
	.cfi_def_cfa_register 6
	pushq	%rbx
	subq	$2088, %rsp
	movq	%rdi, -2088(%rbp)
	movq	%rsi, -2096(%rbp)
	.loc 1 158 0
	movq	%fs:40, %rax
	movq	%rax, -24(%rbp)
	xorl	%eax, %eax
	.loc 1 162 0
	cmpq	$0, -2096(%rbp)
	jne	.L26
	.cfi_offset 3, -24
	leaq	__PRETTY_FUNCTION__.3600(%rip), %rcx
	movl	$162, %edx
	leaq	.LC0(%rip), %rsi
	leaq	.LC17(%rip), %rdi
	call	__assert_fail@PLT
.L26:
	.loc 1 164 0
	movl	$0, %esi
	leaq	.LC4(%rip), %rdi
	movl	$0, %eax
	call	sem_open@PLT
	movq	sem_id@GOTPCREL(%rip), %rdx
	movq	%rax, (%rdx)
	.loc 1 165 0
	movq	sem_id@GOTPCREL(%rip), %rax
	movq	(%rax), %rax
	testq	%rax, %rax
	jne	.L27
	.loc 1 166 0
	leaq	.LC18(%rip), %rdi
	call	perror@PLT
	.loc 1 167 0
	movl	$-1, %eax
	jmp	.L28
.L27:
	.loc 1 170 0
	movq	sem_id@GOTPCREL(%rip), %rax
	movq	(%rax), %rax
	movq	%rax, %rdi
	call	sem_wait@PLT
	.loc 1 172 0
	leaq	-1024(%rbp), %rax
	movl	$2, %edx
	leaq	CLIENT(%rip), %rsi
	movq	%rax, %rdi
	call	memcpy@PLT
	.loc 1 173 0
	leaq	.LC10(%rip), %rdx
	leaq	-1024(%rbp), %rax
	movq	%rdx, %rsi
	movq	%rax, %rdi
	call	strcat@PLT
	.loc 1 174 0
	movq	-2096(%rbp), %rdx
	leaq	-1024(%rbp), %rax
	movq	%rdx, %rsi
	movq	%rax, %rdi
	call	strcat@PLT
	.loc 1 178 0
	leaq	-2040(%rbp), %rdx
	leaq	-2072(%rbp), %rcx
	leaq	-1024(%rbp), %rax
	movq	%rcx, %rsi
	movq	%rax, %rdi
	call	nbb_nameserver_connect@PLT
	testl	%eax, %eax
	je	.L29
	.loc 1 179 0
	leaq	.LC19(%rip), %rdi
	call	puts@PLT
	.loc 1 180 0
	movl	$-1, %eax
	jmp	.L28
.L29:
	.loc 1 183 0
	movq	-2072(%rbp), %rax
	testq	%rax, %rax
	jne	.L30
	.loc 1 184 0
	movl	$-1, -2036(%rbp)
	jmp	.L31
.L30:
	.loc 1 187 0
	movq	-2072(%rbp), %rax
	leaq	UNKNOWN_SERVICE(%rip), %rsi
	movq	%rax, %rdi
	call	strcmp@PLT
	testl	%eax, %eax
	jne	.L32
	.loc 1 188 0
	leaq	.LC20(%rip), %rax
	movq	-2096(%rbp), %rdx
	movq	%rdx, %rsi
	movq	%rax, %rdi
	movl	$0, %eax
	call	printf@PLT
	.loc 1 189 0
	movl	$-1, -2036(%rbp)
	jmp	.L31
.L32:
	.loc 1 192 0
	movq	-2072(%rbp), %rax
	leaq	SERVICE_BUSY(%rip), %rsi
	movq	%rax, %rdi
	call	strcmp@PLT
	testl	%eax, %eax
	jne	.L33
	.loc 1 193 0
	leaq	.LC21(%rip), %rax
	movq	-2096(%rbp), %rdx
	movq	%rdx, %rsi
	movq	%rax, %rdi
	movl	$0, %eax
	call	printf@PLT
	.loc 1 194 0
	movl	$-1, -2036(%rbp)
	jmp	.L31
.L33:
.LBB3:
	.loc 1 205 0
	leaq	.LC10(%rip), %rdx
	movq	-2072(%rbp), %rax
	movq	%rdx, %rsi
	movq	%rax, %rdi
	call	strtok@PLT
	movq	%rax, -2080(%rbp)
	.loc 1 206 0
	movq	-2080(%rbp), %rax
	movq	%rax, %rdi
	call	atoi@PLT
	movl	%eax, -2048(%rbp)
	.loc 1 207 0
	leaq	.LC10(%rip), %rax
	movq	%rax, %rsi
	movl	$0, %edi
	call	strtok@PLT
	movq	%rax, -2080(%rbp)
	.loc 1 208 0
	movq	-2080(%rbp), %rax
	movq	%rax, %rdi
	call	atoi@PLT
	movl	%eax, -2052(%rbp)
	.loc 1 210 0
	movl	-2048(%rbp), %eax
	leal	1000(%rax), %ebx
	movl	-2048(%rbp), %edx
	movq	-2088(%rbp), %rax
	movl	$0, %ecx
	movl	%ebx, %esi
	movq	%rax, %rdi
	call	nbb_open_channel@PLT
	movl	%eax, -2044(%rbp)
	.loc 1 212 0
	movl	-2044(%rbp), %ebx
	movl	$1000, %edi
	call	malloc@PLT
	movq	%rax, %rdx
	movq	connected_nodes@GOTPCREL(%rip), %rax
	movslq	%ebx,%rcx
	salq	$4, %rcx
	movq	%rdx, (%rcx,%rax)
	.loc 1 213 0
	movl	-2044(%rbp), %edx
	movq	connected_nodes@GOTPCREL(%rip), %rax
	movslq	%edx,%rdx
	salq	$4, %rdx
	movq	(%rdx,%rax), %rax
	movq	-2096(%rbp), %rdx
	movq	%rdx, %rsi
	movq	%rax, %rdi
	call	strcpy@PLT
	.loc 1 214 0
	movl	-2044(%rbp), %edx
	movq	connected_nodes@GOTPCREL(%rip), %rax
	movslq	%edx,%rdx
	movq	%rdx, %rcx
	salq	$4, %rcx
	movl	-2052(%rbp), %edx
	movl	%edx, 8(%rcx,%rax)
	.loc 1 216 0
	movl	-2044(%rbp), %eax
	movl	%eax, -2036(%rbp)
	.loc 1 218 0
	call	getpid@PLT
	movl	%eax, %edx
	leaq	.LC3(%rip), %rcx
	leaq	-2064(%rbp), %rax
	movq	%rcx, %rsi
	movq	%rax, %rdi
	movl	$0, %eax
	call	sprintf@PLT
	.loc 1 219 0
	leaq	.LC22(%rip), %rcx
	leaq	-2032(%rbp), %rax
	movl	$8, %edx
	movq	%rcx, %rsi
	movq	%rax, %rdi
	call	memcpy@PLT
	.loc 1 220 0
	leaq	.LC10(%rip), %rdx
	leaq	-2032(%rbp), %rax
	movq	%rdx, %rsi
	movq	%rax, %rdi
	call	strcat@PLT
	.loc 1 221 0
	leaq	-2064(%rbp), %rdx
	leaq	-2032(%rbp), %rax
	movq	%rdx, %rsi
	movq	%rax, %rdi
	call	strcat@PLT
	.loc 1 222 0
	leaq	.LC10(%rip), %rdx
	leaq	-2032(%rbp), %rax
	movq	%rdx, %rsi
	movq	%rax, %rdi
	call	strcat@PLT
	.loc 1 223 0
	movq	-2088(%rbp), %rdx
	leaq	-2032(%rbp), %rax
	movq	%rdx, %rsi
	movq	%rax, %rdi
	call	strcat@PLT
	.loc 1 226 0
	leaq	-2032(%rbp), %rax
	movq	%rax, %rdi
	call	strlen@PLT
	movq	%rax, %rdx
	leaq	-2032(%rbp), %rcx
	movq	-2096(%rbp), %rax
	movq	%rcx, %rsi
	movq	%rax, %rdi
	call	nbb_send@PLT
	testl	%eax, %eax
	je	.L34
	.loc 1 227 0
	leaq	.LC23(%rip), %rax
	movq	-2096(%rbp), %rdx
	movq	%rdx, %rsi
	movq	%rax, %rdi
	movl	$0, %eax
	call	printf@PLT
	.loc 1 228 0
	movl	$-1, -2036(%rbp)
	jmp	.L31
.L34:
	.loc 1 230 0
	leaq	.LC24(%rip), %rax
	movl	-2052(%rbp), %edx
	movl	-2048(%rbp), %ecx
	movl	%ecx, %esi
	movq	%rax, %rdi
	movl	$0, %eax
	call	printf@PLT
	.loc 1 231 0
	call	__libc_current_sigrtmax@PLT
	movq	nbb_recv_data@GOTPCREL(%rip), %rdx
	movq	%rdx, %rsi
	movl	%eax, %edi
	call	signal@PLT
.L31:
.LBE3:
	.loc 1 236 0
	movq	sem_id@GOTPCREL(%rip), %rax
	movq	(%rax), %rax
	movq	%rax, %rdi
	call	sem_post@PLT
	.loc 1 238 0
	movl	-2036(%rbp), %eax
.L28:
	.loc 1 239 0
	movq	-24(%rbp), %rdx
	xorq	%fs:40, %rdx
	je	.L36
	call	__stack_chk_fail@PLT
.L36:
	addq	$2088, %rsp
	popq	%rbx
	leave
	ret
	.cfi_endproc
.LFE3:
	.size	nbb_connect_service, .-nbb_connect_service
	.section	.rodata
	.align 8
.LC25:
	.string	"owner != ((void *)0) && func != ((void *)0)"
	.align 8
.LC26:
	.string	"***NBB***: Set new_conn callback for '%s'\n"
	.text
.globl nbb_set_cb_new_connection
	.type	nbb_set_cb_new_connection, @function
nbb_set_cb_new_connection:
.LFB4:
	.loc 1 242 0
	.cfi_startproc
	pushq	%rbp
.LCFI8:
	.cfi_def_cfa_offset 16
	movq	%rsp, %rbp
	.cfi_offset 6, -16
.LCFI9:
	.cfi_def_cfa_register 6
	subq	$48, %rsp
	movq	%rdi, -24(%rbp)
	movq	%rsi, -32(%rbp)
	movq	%rdx, -40(%rbp)
	.loc 1 246 0
	cmpq	$0, -24(%rbp)
	je	.L38
	cmpq	$0, -32(%rbp)
	jne	.L39
.L38:
	leaq	__PRETTY_FUNCTION__.3671(%rip), %rcx
	movl	$246, %edx
	leaq	.LC0(%rip), %rsi
	leaq	.LC25(%rip), %rdi
	call	__assert_fail@PLT
.L39:
	.loc 1 248 0
	movl	$1, -4(%rbp)
	jmp	.L40
.L43:
	.loc 1 249 0
	movl	-4(%rbp), %eax
	movq	channel_list@GOTPCREL(%rip), %rcx
	movslq	%eax,%rdx
	movq	%rdx, %rax
	salq	$2, %rax
	addq	%rdx, %rax
	addq	%rax, %rax
	addq	%rdx, %rax
	salq	$3, %rax
	addq	%rcx, %rax
	addq	$80, %rax
	movl	(%rax), %eax
	testl	%eax, %eax
	je	.L45
.L41:
	.loc 1 253 0
	movl	-4(%rbp), %eax
	movq	channel_list@GOTPCREL(%rip), %rcx
	movslq	%eax,%rdx
	movq	%rdx, %rax
	salq	$2, %rax
	addq	%rdx, %rax
	addq	%rax, %rax
	addq	%rdx, %rax
	salq	$3, %rax
	addq	%rcx, %rax
	addq	$48, %rax
	movq	(%rax), %rax
	testq	%rax, %rax
	je	.L42
	movl	-4(%rbp), %eax
	movq	channel_list@GOTPCREL(%rip), %rcx
	movslq	%eax,%rdx
	movq	%rdx, %rax
	salq	$2, %rax
	addq	%rdx, %rax
	addq	%rax, %rax
	addq	%rdx, %rax
	salq	$3, %rax
	addq	%rcx, %rax
	addq	$48, %rax
	movq	(%rax), %rdx
	movq	-24(%rbp), %rax
	movq	%rdx, %rsi
	movq	%rax, %rdi
	call	strcmp@PLT
	testl	%eax, %eax
	jne	.L42
	.loc 1 254 0
	movl	-4(%rbp), %eax
	movq	channel_list@GOTPCREL(%rip), %rcx
	movslq	%eax,%rdx
	movq	%rdx, %rax
	salq	$2, %rax
	addq	%rdx, %rax
	addq	%rax, %rax
	addq	%rdx, %rax
	salq	$3, %rax
	addq	%rcx, %rax
	leaq	48(%rax), %rdx
	movq	-32(%rbp), %rax
	movq	%rax, 8(%rdx)
	.loc 1 255 0
	movl	-4(%rbp), %eax
	movq	channel_list@GOTPCREL(%rip), %rcx
	movslq	%eax,%rdx
	movq	%rdx, %rax
	salq	$2, %rax
	addq	%rdx, %rax
	addq	%rax, %rax
	addq	%rdx, %rax
	salq	$3, %rax
	addq	%rcx, %rax
	leaq	64(%rax), %rdx
	movq	-40(%rbp), %rax
	movq	%rax, 8(%rdx)
	.loc 1 256 0
	leaq	.LC26(%rip), %rax
	movq	-24(%rbp), %rdx
	movq	%rdx, %rsi
	movq	%rax, %rdi
	movl	$0, %eax
	call	printf@PLT
	jmp	.L42
.L45:
	.loc 1 250 0
	nop
.L42:
	.loc 1 248 0
	addl	$1, -4(%rbp)
.L40:
	cmpl	$14, -4(%rbp)
	jle	.L43
	.loc 1 259 0
	leave
	ret
	.cfi_endproc
.LFE4:
	.size	nbb_set_cb_new_connection, .-nbb_set_cb_new_connection
.globl nbb_set_cb_new_data
	.type	nbb_set_cb_new_data, @function
nbb_set_cb_new_data:
.LFB5:
	.loc 1 262 0
	.cfi_startproc
	pushq	%rbp
.LCFI10:
	.cfi_def_cfa_offset 16
	movq	%rsp, %rbp
	.cfi_offset 6, -16
.LCFI11:
	.cfi_def_cfa_register 6
	subq	$32, %rsp
	movq	%rdi, -24(%rbp)
	movq	%rsi, -32(%rbp)
	.loc 1 265 0
	cmpq	$0, -24(%rbp)
	je	.L47
	cmpq	$0, -32(%rbp)
	jne	.L48
.L47:
	leaq	__PRETTY_FUNCTION__.3700(%rip), %rcx
	movl	$265, %edx
	leaq	.LC0(%rip), %rsi
	leaq	.LC25(%rip), %rdi
	call	__assert_fail@PLT
.L48:
	.loc 1 267 0
	movl	$1, -4(%rbp)
	jmp	.L49
.L52:
	.loc 1 268 0
	movl	-4(%rbp), %eax
	movq	channel_list@GOTPCREL(%rip), %rcx
	movslq	%eax,%rdx
	movq	%rdx, %rax
	salq	$2, %rax
	addq	%rdx, %rax
	addq	%rax, %rax
	addq	%rdx, %rax
	salq	$3, %rax
	addq	%rcx, %rax
	addq	$80, %rax
	movl	(%rax), %eax
	testl	%eax, %eax
	je	.L54
.L50:
	.loc 1 272 0
	movl	-4(%rbp), %eax
	movq	channel_list@GOTPCREL(%rip), %rcx
	movslq	%eax,%rdx
	movq	%rdx, %rax
	salq	$2, %rax
	addq	%rdx, %rax
	addq	%rax, %rax
	addq	%rdx, %rax
	salq	$3, %rax
	addq	%rcx, %rax
	addq	$48, %rax
	movq	(%rax), %rax
	testq	%rax, %rax
	je	.L51
	movl	-4(%rbp), %eax
	movq	channel_list@GOTPCREL(%rip), %rcx
	movslq	%eax,%rdx
	movq	%rdx, %rax
	salq	$2, %rax
	addq	%rdx, %rax
	addq	%rax, %rax
	addq	%rdx, %rax
	salq	$3, %rax
	addq	%rcx, %rax
	addq	$48, %rax
	movq	(%rax), %rdx
	movq	-24(%rbp), %rax
	movq	%rdx, %rsi
	movq	%rax, %rdi
	call	strcmp@PLT
	testl	%eax, %eax
	jne	.L51
	.loc 1 273 0
	movl	-4(%rbp), %eax
	movq	channel_list@GOTPCREL(%rip), %rcx
	movslq	%eax,%rdx
	movq	%rdx, %rax
	salq	$2, %rax
	addq	%rdx, %rax
	addq	%rax, %rax
	addq	%rdx, %rax
	salq	$3, %rax
	addq	%rcx, %rax
	leaq	64(%rax), %rdx
	movq	-32(%rbp), %rax
	movq	%rax, (%rdx)
	jmp	.L51
.L54:
	.loc 1 269 0
	nop
.L51:
	.loc 1 267 0
	addl	$1, -4(%rbp)
.L49:
	cmpl	$14, -4(%rbp)
	jle	.L52
	.loc 1 276 0
	leave
	ret
	.cfi_endproc
.LFE5:
	.size	nbb_set_cb_new_data, .-nbb_set_cb_new_data
	.section	.rodata
	.align 8
.LC27:
	.string	"slot_id >= 0 && slot_id < 15 && \"Invalid slot id\""
	.align 8
.LC28:
	.string	"owner != ((void *)0) && \"Invalid owner\""
	.align 8
.LC29:
	.string	"***nbb_set_owner***: Old owner: '%s'\n"
	.align 8
.LC30:
	.string	"channel_list[slot_id].owner != ((void *)0) && \"malloc failed\""
	.align 8
.LC31:
	.string	"***nbb_change_owner***: Changed owner for slot %d to '%s'\n"
	.text
.globl nbb_set_owner
	.type	nbb_set_owner, @function
nbb_set_owner:
.LFB6:
	.loc 1 279 0
	.cfi_startproc
	pushq	%rbp
.LCFI12:
	.cfi_def_cfa_offset 16
	movq	%rsp, %rbp
	.cfi_offset 6, -16
.LCFI13:
	.cfi_def_cfa_register 6
	pushq	%r12
	pushq	%rbx
	subq	$16, %rsp
	movl	%edi, -20(%rbp)
	movq	%rsi, -32(%rbp)
	.loc 1 280 0
	cmpl	$0, -20(%rbp)
	js	.L56
	.cfi_offset 3, -32
	.cfi_offset 12, -24
	cmpl	$14, -20(%rbp)
	jle	.L57
.L56:
	leaq	__PRETTY_FUNCTION__.3726(%rip), %rcx
	movl	$280, %edx
	leaq	.LC0(%rip), %rsi
	leaq	.LC27(%rip), %rdi
	call	__assert_fail@PLT
.L57:
	.loc 1 281 0
	cmpq	$0, -32(%rbp)
	jne	.L58
	leaq	__PRETTY_FUNCTION__.3726(%rip), %rcx
	movl	$281, %edx
	leaq	.LC0(%rip), %rsi
	leaq	.LC28(%rip), %rdi
	call	__assert_fail@PLT
.L58:
	.loc 1 283 0
	movl	-20(%rbp), %eax
	movq	channel_list@GOTPCREL(%rip), %rcx
	movslq	%eax,%rdx
	movq	%rdx, %rax
	salq	$2, %rax
	addq	%rdx, %rax
	addq	%rax, %rax
	addq	%rdx, %rax
	salq	$3, %rax
	addq	%rcx, %rax
	addq	$48, %rax
	movq	(%rax), %rax
	testq	%rax, %rax
	je	.L59
	.loc 1 284 0
	movl	-20(%rbp), %eax
	movq	channel_list@GOTPCREL(%rip), %rcx
	movslq	%eax,%rdx
	movq	%rdx, %rax
	salq	$2, %rax
	addq	%rdx, %rax
	addq	%rax, %rax
	addq	%rdx, %rax
	salq	$3, %rax
	addq	%rcx, %rax
	addq	$48, %rax
	movq	(%rax), %rdx
	leaq	.LC29(%rip), %rax
	movq	%rdx, %rsi
	movq	%rax, %rdi
	movl	$0, %eax
	call	printf@PLT
	.loc 1 285 0
	movl	-20(%rbp), %eax
	movq	channel_list@GOTPCREL(%rip), %rcx
	movslq	%eax,%rdx
	movq	%rdx, %rax
	salq	$2, %rax
	addq	%rdx, %rax
	addq	%rax, %rax
	addq	%rdx, %rax
	salq	$3, %rax
	addq	%rcx, %rax
	addq	$48, %rax
	movq	(%rax), %rax
	movq	%rax, %rdi
	call	free@PLT
.L59:
	.loc 1 288 0
	movl	-20(%rbp), %r12d
	movq	-32(%rbp), %rax
	movq	%rax, %rdi
	call	strlen@PLT
	addq	$1, %rax
	movq	%rax, %rdi
	call	malloc@PLT
	movq	%rax, %rcx
	movq	channel_list@GOTPCREL(%rip), %rbx
	movslq	%r12d,%rdx
	movq	%rdx, %rax
	salq	$2, %rax
	addq	%rdx, %rax
	addq	%rax, %rax
	addq	%rdx, %rax
	salq	$3, %rax
	addq	%rbx, %rax
	addq	$48, %rax
	movq	%rcx, (%rax)
	.loc 1 289 0
	movl	-20(%rbp), %eax
	movq	channel_list@GOTPCREL(%rip), %rcx
	movslq	%eax,%rdx
	movq	%rdx, %rax
	salq	$2, %rax
	addq	%rdx, %rax
	addq	%rax, %rax
	addq	%rdx, %rax
	salq	$3, %rax
	addq	%rcx, %rax
	addq	$48, %rax
	movq	(%rax), %rax
	testq	%rax, %rax
	jne	.L60
	leaq	__PRETTY_FUNCTION__.3726(%rip), %rcx
	movl	$289, %edx
	leaq	.LC0(%rip), %rsi
	leaq	.LC30(%rip), %rdi
	call	__assert_fail@PLT
.L60:
	.loc 1 291 0
	movl	-20(%rbp), %eax
	movq	channel_list@GOTPCREL(%rip), %rcx
	movslq	%eax,%rdx
	movq	%rdx, %rax
	salq	$2, %rax
	addq	%rdx, %rax
	addq	%rax, %rax
	addq	%rdx, %rax
	salq	$3, %rax
	addq	%rcx, %rax
	addq	$48, %rax
	movq	(%rax), %rax
	movq	-32(%rbp), %rdx
	movq	%rdx, %rsi
	movq	%rax, %rdi
	call	strcpy@PLT
	.loc 1 292 0
	leaq	.LC31(%rip), %rax
	movq	-32(%rbp), %rdx
	movl	-20(%rbp), %ecx
	movl	%ecx, %esi
	movq	%rax, %rdi
	movl	$0, %eax
	call	printf@PLT
	.loc 1 293 0
	addq	$16, %rsp
	popq	%rbx
	popq	%r12
	leave
	ret
	.cfi_endproc
.LFE6:
	.size	nbb_set_owner, .-nbb_set_owner
	.section	.rodata
	.align 8
.LC32:
	.string	"** nbb_write_bytes() read shmid: %d, write shmid: %d,  msg: %s, msg_len: %d\n"
.LC33:
	.string	"msg != ((void *)0)"
	.align 8
.LC34:
	.string	"! nbb_send(): nothing to send (0 length passed in)"
	.align 8
.LC35:
	.string	"slot_id >= 0 && slot_id < 15 && \"Process not found\""
	.align 8
.LC36:
	.string	"** nbb_write_bytes() Sent kill to %d\n"
	.text
.globl nbb_write_bytes
	.type	nbb_write_bytes, @function
nbb_write_bytes:
.LFB7:
	.loc 1 296 0
	.cfi_startproc
	pushq	%rbp
.LCFI14:
	.cfi_def_cfa_offset 16
	movq	%rsp, %rbp
	.cfi_offset 6, -16
.LCFI15:
	.cfi_def_cfa_register 6
	pushq	%rbx
	subq	$40, %rsp
	movl	%edi, -20(%rbp)
	movq	%rsi, -32(%rbp)
	movq	%rdx, -40(%rbp)
	.loc 1 297 0
	movq	-40(%rbp), %rax
	movl	%eax, %ecx
	movl	-20(%rbp), %eax
	movq	channel_list@GOTPCREL(%rip), %rbx
	.cfi_offset 3, -24
	movslq	%eax,%rdx
	movq	%rdx, %rax
	salq	$2, %rax
	addq	%rdx, %rax
	addq	%rax, %rax
	addq	%rdx, %rax
	salq	$3, %rax
	addq	%rbx, %rax
	addq	$32, %rax
	movl	8(%rax), %esi
	movl	-20(%rbp), %eax
	movq	channel_list@GOTPCREL(%rip), %rbx
	movslq	%eax,%rdx
	movq	%rdx, %rax
	salq	$2, %rax
	addq	%rdx, %rax
	addq	%rax, %rax
	addq	%rdx, %rax
	salq	$3, %rax
	addq	%rbx, %rax
	addq	$16, %rax
	movl	(%rax), %ebx
	leaq	.LC32(%rip), %rax
	movq	-32(%rbp), %rdx
	movl	%ecx, %r8d
	movq	%rdx, %rcx
	movl	%esi, %edx
	movl	%ebx, %esi
	movq	%rax, %rdi
	movl	$0, %eax
	call	printf@PLT
	.loc 1 298 0
	cmpq	$0, -32(%rbp)
	jne	.L63
	leaq	__PRETTY_FUNCTION__.3758(%rip), %rcx
	movl	$298, %edx
	leaq	.LC0(%rip), %rsi
	leaq	.LC33(%rip), %rdi
	call	__assert_fail@PLT
.L63:
	.loc 1 300 0
	cmpq	$0, -40(%rbp)
	jne	.L64
	.loc 1 301 0
	leaq	.LC34(%rip), %rdi
	call	puts@PLT
	.loc 1 302 0
	movl	$0, %eax
	jmp	.L65
.L64:
	.loc 1 305 0
	cmpl	$0, -20(%rbp)
	js	.L66
	cmpl	$14, -20(%rbp)
	jle	.L67
.L66:
	leaq	__PRETTY_FUNCTION__.3758(%rip), %rcx
	movl	$305, %edx
	leaq	.LC0(%rip), %rsi
	leaq	.LC35(%rip), %rdi
	call	__assert_fail@PLT
.L67:
	.loc 1 307 0
	movq	-40(%rbp), %rdx
	movq	-32(%rbp), %rcx
	movl	-20(%rbp), %eax
	movq	%rcx, %rsi
	movl	%eax, %edi
	call	nbb_insert_item@PLT
	.loc 1 308 0
	call	__libc_current_sigrtmax@PLT
	movl	%eax, %edx
	movl	-20(%rbp), %ecx
	movq	connected_nodes@GOTPCREL(%rip), %rax
	movslq	%ecx,%rcx
	salq	$4, %rcx
	movl	8(%rcx,%rax), %eax
	movl	%edx, %esi
	movl	%eax, %edi
	call	kill@PLT
	.loc 1 310 0
	movl	-20(%rbp), %edx
	movq	connected_nodes@GOTPCREL(%rip), %rax
	movslq	%edx,%rdx
	salq	$4, %rdx
	movl	8(%rdx,%rax), %edx
	leaq	.LC36(%rip), %rax
	movl	%edx, %esi
	movq	%rax, %rdi
	movl	$0, %eax
	call	printf@PLT
	.loc 1 312 0
	movl	$0, %eax
.L65:
	.loc 1 314 0
	addq	$40, %rsp
	popq	%rbx
	leave
	ret
	.cfi_endproc
.LFE7:
	.size	nbb_write_bytes, .-nbb_write_bytes
.globl nbb_send
	.type	nbb_send, @function
nbb_send:
.LFB8:
	.loc 1 317 0
	.cfi_startproc
	pushq	%rbp
.LCFI16:
	.cfi_def_cfa_offset 16
	movq	%rsp, %rbp
	.cfi_offset 6, -16
.LCFI17:
	.cfi_def_cfa_register 6
	subq	$48, %rsp
	movq	%rdi, -24(%rbp)
	movq	%rsi, -32(%rbp)
	movq	%rdx, -40(%rbp)
	.loc 1 322 0
	movl	$1, -4(%rbp)
	jmp	.L70
.L73:
	.loc 1 323 0
	movl	-4(%rbp), %eax
	movq	channel_list@GOTPCREL(%rip), %rcx
	movslq	%eax,%rdx
	movq	%rdx, %rax
	salq	$2, %rax
	addq	%rdx, %rax
	addq	%rax, %rax
	addq	%rdx, %rax
	salq	$3, %rax
	addq	%rcx, %rax
	addq	$80, %rax
	movl	(%rax), %eax
	testl	%eax, %eax
	je	.L71
	movl	-4(%rbp), %edx
	movq	connected_nodes@GOTPCREL(%rip), %rax
	movslq	%edx,%rdx
	salq	$4, %rdx
	movq	(%rdx,%rax), %rax
	testq	%rax, %rax
	je	.L71
	.loc 1 324 0
	movl	-4(%rbp), %edx
	movq	connected_nodes@GOTPCREL(%rip), %rax
	movslq	%edx,%rdx
	salq	$4, %rdx
	movq	(%rdx,%rax), %rdx
	movq	-24(%rbp), %rax
	movq	%rdx, %rsi
	movq	%rax, %rdi
	call	strcmp@PLT
	.loc 1 323 0
	testl	%eax, %eax
	je	.L75
.L71:
	.loc 1 322 0
	addl	$1, -4(%rbp)
.L70:
	cmpl	$14, -4(%rbp)
	jle	.L73
	jmp	.L72
.L75:
	.loc 1 325 0
	nop
.L72:
	.loc 1 329 0
	movq	-40(%rbp), %rdx
	movq	-32(%rbp), %rcx
	movl	-4(%rbp), %eax
	movq	%rcx, %rsi
	movl	%eax, %edi
	call	nbb_write_bytes@PLT
	.loc 1 331 0
	leave
	ret
	.cfi_endproc
.LFE8:
	.size	nbb_send, .-nbb_send
	.section	.rodata
	.align 8
.LC37:
	.string	"***NBB***: Inside signal handler"
	.align 8
.LC38:
	.string	"***NBB***: New connection on slot %d from client_name: %s with pid: %d\n"
.LC39:
	.string	"** Received %zu bytes: "
.LC40:
	.string	"%02x"
.LC41:
	.string	" from shm id %d slot %d\n"
	.text
.globl nbb_recv_data
	.type	nbb_recv_data, @function
nbb_recv_data:
.LFB9:
	.loc 1 335 0
	.cfi_startproc
	pushq	%rbp
.LCFI18:
	.cfi_def_cfa_offset 16
	movq	%rsp, %rbp
	.cfi_offset 6, -16
.LCFI19:
	.cfi_def_cfa_register 6
	pushq	%rbx
	subq	$72, %rsp
	movl	%edi, -68(%rbp)
	.loc 1 338 0
	movq	$0, -48(%rbp)
	.loc 1 339 0
	movl	$-1, -24(%rbp)
	.loc 1 341 0
	movl	$0, -28(%rbp)
	.loc 1 344 0
	leaq	.LC37(%rip), %rdi
	.cfi_offset 3, -24
	call	puts@PLT
	.loc 1 348 0
	movl	$1, -20(%rbp)
	jmp	.L77
.L86:
	.loc 1 349 0
	leaq	-40(%rbp), %rcx
	leaq	-48(%rbp), %rdx
	movl	-20(%rbp), %eax
	movq	%rcx, %rsi
	movl	%eax, %edi
	call	nbb_read_item@PLT
	movl	%eax, -24(%rbp)
	.loc 1 351 0
	cmpl	$0, -24(%rbp)
	jne	.L78
.LBB4:
	.loc 1 352 0
	movq	-40(%rbp), %rax
	movl	$7, %edx
	leaq	.LC22(%rip), %rsi
	movq	%rax, %rdi
	call	memcmp@PLT
	testl	%eax, %eax
	jne	.L79
.LBB5:
	.loc 1 353 0
	movq	-48(%rbp), %rax
	leaq	1(%rax), %rdx
	movq	-40(%rbp), %rax
	movq	%rdx, %rsi
	movq	%rax, %rdi
	call	realloc@PLT
	movq	%rax, -40(%rbp)
	.loc 1 354 0
	movq	-40(%rbp), %rdx
	movq	-48(%rbp), %rax
	leaq	(%rdx,%rax), %rax
	movb	$0, (%rax)
	.loc 1 356 0
	movq	$0, -56(%rbp)
	.loc 1 358 0
	leaq	.LC10(%rip), %rdx
	movq	-40(%rbp), %rax
	movq	%rdx, %rsi
	movq	%rax, %rdi
	call	strtok@PLT
	.loc 1 359 0
	leaq	.LC10(%rip), %rax
	movq	%rax, %rsi
	movl	$0, %edi
	call	strtok@PLT
	movq	%rax, -56(%rbp)
	.loc 1 360 0
	movl	-20(%rbp), %ebx
	movq	-56(%rbp), %rax
	movq	%rax, %rdi
	call	atoi@PLT
	movq	connected_nodes@GOTPCREL(%rip), %rdx
	movslq	%ebx,%rcx
	salq	$4, %rcx
	movl	%eax, 8(%rcx,%rdx)
	.loc 1 361 0
	leaq	.LC10(%rip), %rax
	movq	%rax, %rsi
	movl	$0, %edi
	call	strtok@PLT
	movq	%rax, -56(%rbp)
	.loc 1 362 0
	movl	-20(%rbp), %ebx
	movq	-56(%rbp), %rax
	movq	%rax, %rdi
	call	strlen@PLT
	movq	%rax, %rdi
	call	malloc@PLT
	movq	%rax, %rdx
	movq	connected_nodes@GOTPCREL(%rip), %rax
	movslq	%ebx,%rcx
	salq	$4, %rcx
	movq	%rdx, (%rcx,%rax)
	.loc 1 363 0
	movq	-56(%rbp), %rdx
	movl	-20(%rbp), %ecx
	movq	connected_nodes@GOTPCREL(%rip), %rax
	movslq	%ecx,%rcx
	salq	$4, %rcx
	movq	(%rcx,%rax), %rax
	movq	%rdx, %rsi
	movq	%rax, %rdi
	call	strcpy@PLT
	.loc 1 366 0
	movl	-20(%rbp), %edx
	movq	connected_nodes@GOTPCREL(%rip), %rax
	movslq	%edx,%rdx
	salq	$4, %rdx
	movl	8(%rdx,%rax), %ecx
	movl	-20(%rbp), %edx
	movq	connected_nodes@GOTPCREL(%rip), %rax
	movslq	%edx,%rdx
	salq	$4, %rdx
	movq	(%rdx,%rax), %rdx
	leaq	.LC38(%rip), %rax
	movl	-20(%rbp), %ebx
	movl	%ebx, %esi
	movq	%rax, %rdi
	movl	$0, %eax
	call	printf@PLT
	.loc 1 368 0
	movl	$1, -28(%rbp)
.L79:
.LBE5:
	.loc 1 372 0
	cmpl	$0, -28(%rbp)
	je	.L80
	movl	-20(%rbp), %eax
	movq	channel_list@GOTPCREL(%rip), %rcx
	movslq	%eax,%rdx
	movq	%rdx, %rax
	salq	$2, %rax
	addq	%rdx, %rax
	addq	%rax, %rax
	addq	%rdx, %rax
	salq	$3, %rax
	addq	%rcx, %rax
	addq	$48, %rax
	movq	8(%rax), %rax
	testq	%rax, %rax
	je	.L80
	.loc 1 373 0
	movl	-20(%rbp), %eax
	movq	channel_list@GOTPCREL(%rip), %rcx
	movslq	%eax,%rdx
	movq	%rdx, %rax
	salq	$2, %rax
	addq	%rdx, %rax
	addq	%rax, %rax
	addq	%rdx, %rax
	salq	$3, %rax
	addq	%rcx, %rax
	addq	$48, %rax
	movq	8(%rax), %rcx
	movl	-20(%rbp), %eax
	movq	channel_list@GOTPCREL(%rip), %rbx
	movslq	%eax,%rdx
	movq	%rdx, %rax
	salq	$2, %rax
	addq	%rdx, %rax
	addq	%rax, %rax
	addq	%rdx, %rax
	salq	$3, %rax
	addq	%rbx, %rax
	addq	$64, %rax
	movq	8(%rax), %rdx
	movl	-20(%rbp), %eax
	movq	%rdx, %rsi
	movl	%eax, %edi
	call	*%rcx
.L80:
	.loc 1 378 0
	cmpl	$0, -28(%rbp)
	jne	.L81
	movl	-20(%rbp), %eax
	movq	channel_list@GOTPCREL(%rip), %rcx
	movslq	%eax,%rdx
	movq	%rdx, %rax
	salq	$2, %rax
	addq	%rdx, %rax
	addq	%rax, %rax
	addq	%rdx, %rax
	salq	$3, %rax
	addq	%rcx, %rax
	addq	$64, %rax
	movq	(%rax), %rax
	testq	%rax, %rax
	je	.L81
	.loc 1 379 0
	movl	-20(%rbp), %eax
	movq	channel_list@GOTPCREL(%rip), %rcx
	movslq	%eax,%rdx
	movq	%rdx, %rax
	salq	$2, %rax
	addq	%rdx, %rax
	addq	%rax, %rax
	addq	%rdx, %rax
	salq	$3, %rax
	addq	%rcx, %rax
	addq	$64, %rax
	movq	(%rax), %rdx
	movl	-20(%rbp), %eax
	movl	%eax, %edi
	call	*%rdx
.L81:
	.loc 1 382 0
	movq	-48(%rbp), %rdx
	leaq	.LC39(%rip), %rax
	movq	%rdx, %rsi
	movq	%rax, %rdi
	movl	$0, %eax
	call	printf@PLT
	.loc 1 385 0
	movl	$0, -32(%rbp)
	jmp	.L82
.L83:
	.loc 1 386 0
	movq	-40(%rbp), %rdx
	movl	-32(%rbp), %eax
	cltq
	leaq	(%rdx,%rax), %rax
	movzbl	(%rax), %eax
	movsbl	%al,%edx
	leaq	.LC40(%rip), %rax
	movl	%edx, %esi
	movq	%rax, %rdi
	movl	$0, %eax
	call	printf@PLT
	.loc 1 385 0
	addl	$1, -32(%rbp)
.L82:
	movl	-32(%rbp), %eax
	movslq	%eax,%rdx
	movq	-48(%rbp), %rax
	cmpq	%rax, %rdx
	jb	.L83
	.loc 1 389 0
	movl	-20(%rbp), %eax
	movq	channel_list@GOTPCREL(%rip), %rcx
	movslq	%eax,%rdx
	movq	%rdx, %rax
	salq	$2, %rax
	addq	%rdx, %rax
	addq	%rax, %rax
	addq	%rdx, %rax
	salq	$3, %rax
	addq	%rcx, %rax
	addq	$16, %rax
	movl	(%rax), %ecx
	leaq	.LC41(%rip), %rax
	movl	-20(%rbp), %edx
	movl	%ecx, %esi
	movq	%rax, %rdi
	movl	$0, %eax
	call	printf@PLT
	.loc 1 392 0
	cmpl	$0, -28(%rbp)
	jne	.L84
	.loc 1 393 0
	movq	-48(%rbp), %rax
	movl	%eax, %edx
	movq	-40(%rbp), %rcx
	movl	-20(%rbp), %eax
	movq	%rcx, %rsi
	movl	%eax, %edi
	call	nbb_flush_shm@PLT
.L84:
	.loc 1 403 0
	movq	$0, -48(%rbp)
	.loc 1 404 0
	movq	-40(%rbp), %rax
	movq	%rax, %rdi
	call	free@PLT
.L78:
.LBE4:
	.loc 1 348 0
	addl	$1, -20(%rbp)
.L77:
	movl	-20(%rbp), %eax
	movq	channel_list@GOTPCREL(%rip), %rcx
	movslq	%eax,%rdx
	movq	%rdx, %rax
	salq	$2, %rax
	addq	%rdx, %rax
	addq	%rax, %rax
	addq	%rdx, %rax
	salq	$3, %rax
	addq	%rcx, %rax
	addq	$80, %rax
	movl	(%rax), %eax
	testl	%eax, %eax
	je	.L85
	cmpl	$14, -20(%rbp)
	jle	.L86
.L85:
	.loc 1 409 0
	call	__libc_current_sigrtmax@PLT
	movq	nbb_recv_data@GOTPCREL(%rip), %rdx
	movq	%rdx, %rsi
	movl	%eax, %edi
	call	signal@PLT
	.loc 1 410 0
	addq	$72, %rsp
	popq	%rbx
	leave
	ret
	.cfi_endproc
.LFE9:
	.size	nbb_recv_data, .-nbb_recv_data
	.section	.rodata
	.align 8
.LC42:
	.string	"! nbb_open_channel(): no free_slot"
.LC43:
	.string	"shmget"
.LC44:
	.string	"shmat"
	.text
.globl nbb_open_channel
	.type	nbb_open_channel, @function
nbb_open_channel:
.LFB10:
	.loc 1 413 0
	.cfi_startproc
	pushq	%rbp
.LCFI20:
	.cfi_def_cfa_offset 16
	movq	%rsp, %rbp
	.cfi_offset 6, -16
.LCFI21:
	.cfi_def_cfa_register 6
	pushq	%r12
	pushq	%rbx
	subq	$48, %rsp
	movq	%rdi, -40(%rbp)
	movl	%esi, -44(%rbp)
	movl	%edx, -48(%rbp)
	movl	%ecx, -52(%rbp)
	.loc 1 418 0
	cmpl	$4000, -44(%rbp)
	jne	.L89
	.cfi_offset 3, -32
	.cfi_offset 12, -24
	cmpl	$4001, -48(%rbp)
	jne	.L89
	.loc 1 419 0
	movl	$0, -24(%rbp)
	.loc 1 418 0
	jmp	.L90
.L89:
	.loc 1 422 0
	movl	$0, %eax
	call	nbb_free_channel_slot@PLT
	movl	%eax, -24(%rbp)
.L90:
	.loc 1 425 0
	cmpl	$-1, -24(%rbp)
	jne	.L91
	.loc 1 426 0
	leaq	.LC42(%rip), %rdi
	call	puts@PLT
	.loc 1 427 0
	movl	$-1, %eax
	jmp	.L92
.L91:
	.loc 1 434 0
	movl	-52(%rbp), %eax
	movl	%eax, %edx
	orl	$438, %edx
	movl	-44(%rbp), %eax
	movl	$8192, %esi
	movl	%eax, %edi
	call	shmget@PLT
	movl	%eax, -20(%rbp)
	cmpl	$0, -20(%rbp)
	jns	.L93
	.loc 1 435 0
	leaq	.LC43(%rip), %rdi
	call	perror@PLT
	.loc 1 436 0
	movl	$-1, %eax
	jmp	.L92
.L93:
	.loc 1 438 0
	movl	-20(%rbp), %eax
	movl	$0, %edx
	movl	$0, %esi
	movl	%eax, %edi
	call	shmat@PLT
	movq	%rax, -32(%rbp)
	cmpq	$-1, -32(%rbp)
	jne	.L94
	.loc 1 439 0
	leaq	.LC44(%rip), %rdi
	call	perror@PLT
	.loc 1 440 0
	movl	$-1, %eax
	jmp	.L92
.L94:
	.loc 1 443 0
	movq	-32(%rbp), %rax
	movl	$8192, %edx
	movl	$0, %esi
	movq	%rax, %rdi
	call	memset@PLT
	.loc 1 445 0
	movl	-24(%rbp), %eax
	movq	-32(%rbp), %rbx
	movq	channel_list@GOTPCREL(%rip), %rcx
	movslq	%eax,%rdx
	movq	%rdx, %rax
	salq	$2, %rax
	addq	%rdx, %rax
	addq	%rax, %rax
	addq	%rdx, %rax
	salq	$3, %rax
	movq	%rbx, (%rax,%rcx)
	.loc 1 446 0
	movl	-24(%rbp), %eax
	movq	channel_list@GOTPCREL(%rip), %rcx
	movslq	%eax,%rdx
	movq	%rdx, %rax
	salq	$2, %rax
	addq	%rdx, %rax
	addq	%rax, %rax
	addq	%rdx, %rax
	salq	$3, %rax
	movq	(%rax,%rcx), %rax
	movw	$4096, 12(%rax)
	.loc 1 447 0
	movl	-24(%rbp), %eax
	movq	channel_list@GOTPCREL(%rip), %rcx
	movslq	%eax,%rdx
	movq	%rdx, %rax
	salq	$2, %rax
	addq	%rdx, %rax
	addq	%rax, %rax
	addq	%rdx, %rax
	salq	$3, %rax
	movq	(%rax,%rcx), %rax
	movw	$4096, 10(%rax)
	.loc 1 448 0
	movl	-24(%rbp), %eax
	movq	-32(%rbp), %rdx
	leaq	4096(%rdx), %rbx
	movq	channel_list@GOTPCREL(%rip), %rcx
	movslq	%eax,%rdx
	movq	%rdx, %rax
	salq	$2, %rax
	addq	%rdx, %rax
	addq	%rax, %rax
	addq	%rdx, %rax
	salq	$3, %rax
	movq	%rbx, 8(%rax,%rcx)
	.loc 1 449 0
	movl	-24(%rbp), %eax
	movq	channel_list@GOTPCREL(%rip), %rcx
	movslq	%eax,%rdx
	movq	%rdx, %rax
	salq	$2, %rax
	addq	%rdx, %rax
	addq	%rax, %rax
	addq	%rdx, %rax
	salq	$3, %rax
	addq	%rcx, %rax
	leaq	16(%rax), %rdx
	movl	-44(%rbp), %eax
	movl	%eax, (%rdx)
	.loc 1 450 0
	movl	-24(%rbp), %eax
	movq	channel_list@GOTPCREL(%rip), %rcx
	movslq	%eax,%rdx
	movq	%rdx, %rax
	salq	$2, %rax
	addq	%rdx, %rax
	addq	%rax, %rax
	addq	%rdx, %rax
	salq	$3, %rax
	addq	%rcx, %rax
	addq	$16, %rax
	movl	$0, 4(%rax)
	.loc 1 453 0
	movl	$-1, -20(%rbp)
	.loc 1 454 0
	movq	$-1, -32(%rbp)
	.loc 1 455 0
	movl	-52(%rbp), %eax
	movl	%eax, %edx
	orl	$438, %edx
	movl	-48(%rbp), %eax
	movl	$8192, %esi
	movl	%eax, %edi
	call	shmget@PLT
	movl	%eax, -20(%rbp)
	cmpl	$0, -20(%rbp)
	jns	.L95
	.loc 1 456 0
	leaq	.LC43(%rip), %rdi
	call	perror@PLT
	.loc 1 457 0
	movl	$-1, %eax
	jmp	.L92
.L95:
	.loc 1 459 0
	movl	-20(%rbp), %eax
	movl	$0, %edx
	movl	$0, %esi
	movl	%eax, %edi
	call	shmat@PLT
	movq	%rax, -32(%rbp)
	cmpq	$-1, -32(%rbp)
	jne	.L96
	.loc 1 460 0
	leaq	.LC44(%rip), %rdi
	call	perror@PLT
	.loc 1 461 0
	movl	$-1, %eax
	jmp	.L92
.L96:
	.loc 1 464 0
	movq	-32(%rbp), %rax
	movl	$8192, %edx
	movl	$0, %esi
	movq	%rax, %rdi
	call	memset@PLT
	.loc 1 466 0
	movl	-24(%rbp), %eax
	movq	-32(%rbp), %rcx
	movq	channel_list@GOTPCREL(%rip), %rbx
	movslq	%eax,%rdx
	movq	%rdx, %rax
	salq	$2, %rax
	addq	%rdx, %rax
	addq	%rax, %rax
	addq	%rdx, %rax
	salq	$3, %rax
	addq	%rbx, %rax
	addq	$16, %rax
	movq	%rcx, 8(%rax)
	.loc 1 467 0
	movl	-24(%rbp), %eax
	movq	channel_list@GOTPCREL(%rip), %rcx
	movslq	%eax,%rdx
	movq	%rdx, %rax
	salq	$2, %rax
	addq	%rdx, %rax
	addq	%rax, %rax
	addq	%rdx, %rax
	salq	$3, %rax
	addq	%rcx, %rax
	addq	$16, %rax
	movq	8(%rax), %rax
	movw	$4096, 12(%rax)
	.loc 1 468 0
	movl	-24(%rbp), %eax
	movq	channel_list@GOTPCREL(%rip), %rcx
	movslq	%eax,%rdx
	movq	%rdx, %rax
	salq	$2, %rax
	addq	%rdx, %rax
	addq	%rax, %rax
	addq	%rdx, %rax
	salq	$3, %rax
	addq	%rcx, %rax
	addq	$16, %rax
	movq	8(%rax), %rax
	movw	$4096, 10(%rax)
	.loc 1 469 0
	movl	-24(%rbp), %eax
	movq	-32(%rbp), %rdx
	leaq	4096(%rdx), %rcx
	movq	channel_list@GOTPCREL(%rip), %rbx
	movslq	%eax,%rdx
	movq	%rdx, %rax
	salq	$2, %rax
	addq	%rdx, %rax
	addq	%rax, %rax
	addq	%rdx, %rax
	salq	$3, %rax
	addq	%rbx, %rax
	addq	$32, %rax
	movq	%rcx, (%rax)
	.loc 1 470 0
	movl	-24(%rbp), %eax
	movq	channel_list@GOTPCREL(%rip), %rcx
	movslq	%eax,%rdx
	movq	%rdx, %rax
	salq	$2, %rax
	addq	%rdx, %rax
	addq	%rax, %rax
	addq	%rdx, %rax
	salq	$3, %rax
	addq	%rcx, %rax
	leaq	32(%rax), %rdx
	movl	-48(%rbp), %eax
	movl	%eax, 8(%rdx)
	.loc 1 471 0
	movl	-24(%rbp), %eax
	movq	channel_list@GOTPCREL(%rip), %rcx
	movslq	%eax,%rdx
	movq	%rdx, %rax
	salq	$2, %rax
	addq	%rdx, %rax
	addq	%rax, %rax
	addq	%rdx, %rax
	salq	$3, %rax
	addq	%rcx, %rax
	addq	$32, %rax
	movl	$0, 12(%rax)
	.loc 1 473 0
	movl	-24(%rbp), %eax
	movq	channel_list@GOTPCREL(%rip), %rcx
	movslq	%eax,%rdx
	movq	%rdx, %rax
	salq	$2, %rax
	addq	%rdx, %rax
	addq	%rax, %rax
	addq	%rdx, %rax
	salq	$3, %rax
	addq	%rcx, %rax
	addq	$80, %rax
	movl	$1, (%rax)
	.loc 1 475 0
	cmpq	$0, -40(%rbp)
	je	.L97
	.loc 1 476 0
	movl	-24(%rbp), %r12d
	movq	-40(%rbp), %rax
	movq	%rax, %rdi
	call	strlen@PLT
	addq	$1, %rax
	movq	%rax, %rdi
	call	malloc@PLT
	movq	%rax, %rcx
	movq	channel_list@GOTPCREL(%rip), %rbx
	movslq	%r12d,%rdx
	movq	%rdx, %rax
	salq	$2, %rax
	addq	%rdx, %rax
	addq	%rax, %rax
	addq	%rdx, %rax
	salq	$3, %rax
	addq	%rbx, %rax
	addq	$48, %rax
	movq	%rcx, (%rax)
	.loc 1 477 0
	movl	-24(%rbp), %eax
	movq	channel_list@GOTPCREL(%rip), %rcx
	movslq	%eax,%rdx
	movq	%rdx, %rax
	salq	$2, %rax
	addq	%rdx, %rax
	addq	%rax, %rax
	addq	%rdx, %rax
	salq	$3, %rax
	addq	%rcx, %rax
	addq	$48, %rax
	movq	(%rax), %rax
	movq	-40(%rbp), %rdx
	movq	%rdx, %rsi
	movq	%rax, %rdi
	call	strcpy@PLT
.L97:
	.loc 1 480 0
	movl	-24(%rbp), %eax
	movslq	%eax,%rdx
	movq	%rdx, %rax
	addq	%rax, %rax
	addq	%rdx, %rax
	salq	$3, %rax
	movq	%rax, %rdx
	movq	delay_buffers@GOTPCREL(%rip), %rax
	leaq	(%rdx,%rax), %rax
	movl	$24, %edx
	movl	$0, %esi
	movq	%rax, %rdi
	call	memset@PLT
	.loc 1 482 0
	movl	-24(%rbp), %eax
.L92:
	.loc 1 483 0
	addq	$48, %rsp
	popq	%rbx
	popq	%r12
	leave
	ret
	.cfi_endproc
.LFE10:
	.size	nbb_open_channel, .-nbb_open_channel
	.section	.rodata
.LC45:
	.string	"index >= 0 && index < 15"
	.text
.globl nbb_close_channel
	.type	nbb_close_channel, @function
nbb_close_channel:
.LFB11:
	.loc 1 486 0
	.cfi_startproc
	pushq	%rbp
.LCFI22:
	.cfi_def_cfa_offset 16
	movq	%rsp, %rbp
	.cfi_offset 6, -16
.LCFI23:
	.cfi_def_cfa_register 6
	subq	$16, %rsp
	movl	%edi, -4(%rbp)
	.loc 1 489 0
	cmpl	$0, -4(%rbp)
	js	.L100
	cmpl	$14, -4(%rbp)
	jle	.L101
.L100:
	leaq	__PRETTY_FUNCTION__.3963(%rip), %rcx
	movl	$489, %edx
	leaq	.LC0(%rip), %rsi
	leaq	.LC45(%rip), %rdi
	call	__assert_fail@PLT
.L101:
	.loc 1 491 0
	movl	-4(%rbp), %eax
	movq	channel_list@GOTPCREL(%rip), %rcx
	movslq	%eax,%rdx
	movq	%rdx, %rax
	salq	$2, %rax
	addq	%rdx, %rax
	addq	%rax, %rax
	addq	%rdx, %rax
	salq	$3, %rax
	movq	(%rax,%rcx), %rax
	movq	%rax, %rdi
	call	shmdt@PLT
	.loc 1 492 0
	movl	-4(%rbp), %eax
	movq	channel_list@GOTPCREL(%rip), %rcx
	movslq	%eax,%rdx
	movq	%rdx, %rax
	salq	$2, %rax
	addq	%rdx, %rax
	addq	%rax, %rax
	addq	%rdx, %rax
	salq	$3, %rax
	addq	%rcx, %rax
	addq	$16, %rax
	movl	(%rax), %eax
	movl	$0, %edx
	movl	$0, %esi
	movl	%eax, %edi
	call	shmctl@PLT
	cmpl	$-1, %eax
	jne	.L102
	.loc 1 493 0
	movl	$-1, %eax
	jmp	.L103
.L102:
	.loc 1 496 0
	movl	-4(%rbp), %eax
	movq	channel_list@GOTPCREL(%rip), %rcx
	movslq	%eax,%rdx
	movq	%rdx, %rax
	salq	$2, %rax
	addq	%rdx, %rax
	addq	%rax, %rax
	addq	%rdx, %rax
	salq	$3, %rax
	addq	%rcx, %rax
	addq	$16, %rax
	movq	8(%rax), %rax
	movq	%rax, %rdi
	call	shmdt@PLT
	.loc 1 497 0
	movl	-4(%rbp), %eax
	movq	channel_list@GOTPCREL(%rip), %rcx
	movslq	%eax,%rdx
	movq	%rdx, %rax
	salq	$2, %rax
	addq	%rdx, %rax
	addq	%rax, %rax
	addq	%rdx, %rax
	salq	$3, %rax
	addq	%rcx, %rax
	addq	$32, %rax
	movl	8(%rax), %eax
	movl	$0, %edx
	movl	$0, %esi
	movl	%eax, %edi
	call	shmctl@PLT
	cmpl	$-1, %eax
	jne	.L104
	.loc 1 498 0
	movl	$-1, %eax
	jmp	.L103
.L104:
	.loc 1 501 0
	movl	-4(%rbp), %eax
	movq	channel_list@GOTPCREL(%rip), %rcx
	movslq	%eax,%rdx
	movq	%rdx, %rax
	salq	$2, %rax
	addq	%rdx, %rax
	addq	%rax, %rax
	addq	%rdx, %rax
	salq	$3, %rax
	addq	%rcx, %rax
	addq	$80, %rax
	movl	$0, (%rax)
	.loc 1 502 0
	movl	$0, %eax
.L103:
	.loc 1 503 0
	leave
	ret
	.cfi_endproc
.LFE11:
	.size	nbb_close_channel, .-nbb_close_channel
.globl nbb_free_channel_slot
	.type	nbb_free_channel_slot, @function
nbb_free_channel_slot:
.LFB12:
	.loc 1 506 0
	.cfi_startproc
	pushq	%rbp
.LCFI24:
	.cfi_def_cfa_offset 16
	movq	%rsp, %rbp
	.cfi_offset 6, -16
.LCFI25:
	.cfi_def_cfa_register 6
	.loc 1 509 0
	movl	$0, -4(%rbp)
	jmp	.L107
.L110:
	.loc 1 510 0
	movl	-4(%rbp), %eax
	movq	channel_list@GOTPCREL(%rip), %rcx
	movslq	%eax,%rdx
	movq	%rdx, %rax
	salq	$2, %rax
	addq	%rdx, %rax
	addq	%rax, %rax
	addq	%rdx, %rax
	salq	$3, %rax
	addq	%rcx, %rax
	addq	$80, %rax
	movl	(%rax), %eax
	testl	%eax, %eax
	jne	.L108
	.loc 1 511 0
	movl	-4(%rbp), %eax
	jmp	.L109
.L108:
	.loc 1 509 0
	addl	$1, -4(%rbp)
.L107:
	cmpl	$14, -4(%rbp)
	jle	.L110
	.loc 1 515 0
	movl	$-1, %eax
.L109:
	.loc 1 516 0
	leave
	ret
	.cfi_endproc
.LFE12:
	.size	nbb_free_channel_slot, .-nbb_free_channel_slot
	.section	.rodata
	.align 8
.LC46:
	.string	"slot >= 0 && buf != ((void *)0) && size >= 0"
	.align 8
.LC47:
	.string	"***NBB***: Delay buffer %d: %d/%d\n"
	.align 8
.LC48:
	.string	"delay_buffer->capacity >= delay_buffer->len"
	.align 8
.LC49:
	.string	"delay_buffer->content != ((void *)0) && delay_buffer->len > 0"
	.text
.globl nbb_read_bytes
	.type	nbb_read_bytes, @function
nbb_read_bytes:
.LFB13:
	.loc 1 522 0
	.cfi_startproc
	pushq	%rbp
.LCFI26:
	.cfi_def_cfa_offset 16
	movq	%rsp, %rbp
	.cfi_offset 6, -16
.LCFI27:
	.cfi_def_cfa_register 6
	pushq	%rbx
	subq	$56, %rsp
	movl	%edi, -36(%rbp)
	movq	%rsi, -48(%rbp)
	movl	%edx, -52(%rbp)
	.loc 1 523 0
	cmpl	$0, -36(%rbp)
	js	.L113
	.cfi_offset 3, -24
	cmpq	$0, -48(%rbp)
	je	.L113
	cmpl	$0, -52(%rbp)
	jns	.L114
.L113:
	leaq	__PRETTY_FUNCTION__.3999(%rip), %rcx
	movl	$523, %edx
	leaq	.LC0(%rip), %rsi
	leaq	.LC46(%rip), %rdi
	call	__assert_fail@PLT
.L114:
	.loc 1 525 0
	movl	-36(%rbp), %eax
	movslq	%eax,%rdx
	movq	%rdx, %rax
	addq	%rax, %rax
	addq	%rdx, %rax
	salq	$3, %rax
	movq	%rax, %rdx
	movq	delay_buffers@GOTPCREL(%rip), %rax
	leaq	(%rdx,%rax), %rax
	movq	%rax, -32(%rbp)
	.loc 1 526 0
	movq	-32(%rbp), %rax
	movl	12(%rax), %ecx
	movq	-32(%rbp), %rax
	movl	8(%rax), %edx
	leaq	.LC47(%rip), %rax
	movl	-36(%rbp), %ebx
	movl	%ebx, %esi
	movq	%rax, %rdi
	movl	$0, %eax
	call	printf@PLT
	.loc 1 528 0
	movq	-32(%rbp), %rax
	movl	12(%rax), %edx
	movq	-32(%rbp), %rax
	movl	8(%rax), %eax
	cmpl	%eax, %edx
	jge	.L115
	leaq	__PRETTY_FUNCTION__.3999(%rip), %rcx
	movl	$528, %edx
	leaq	.LC0(%rip), %rsi
	leaq	.LC48(%rip), %rdi
	call	__assert_fail@PLT
.L115:
	.loc 1 531 0
	cmpl	$0, -52(%rbp)
	je	.L116
	movq	-32(%rbp), %rax
	movq	(%rax), %rax
	testq	%rax, %rax
	je	.L116
	movq	-32(%rbp), %rax
	movl	8(%rax), %eax
	testl	%eax, %eax
	jne	.L117
.L116:
	.loc 1 532 0
	movl	$0, %eax
	jmp	.L118
.L117:
	.loc 1 535 0
	movq	-32(%rbp), %rax
	movq	(%rax), %rax
	testq	%rax, %rax
	je	.L119
	movq	-32(%rbp), %rax
	movl	8(%rax), %eax
	testl	%eax, %eax
	jg	.L120
.L119:
	leaq	__PRETTY_FUNCTION__.3999(%rip), %rcx
	movl	$535, %edx
	leaq	.LC0(%rip), %rsi
	leaq	.LC49(%rip), %rdi
	call	__assert_fail@PLT
.L120:
	.loc 1 538 0
	movq	-32(%rbp), %rax
	movl	8(%rax), %eax
	cmpl	-52(%rbp), %eax
	jge	.L121
	.loc 1 539 0
	movq	-32(%rbp), %rax
	movl	8(%rax), %eax
	movl	%eax, -52(%rbp)
.L121:
	.loc 1 543 0
	movl	-52(%rbp), %eax
	movslq	%eax,%rdx
	movq	-32(%rbp), %rax
	movq	(%rax), %rcx
	movq	-48(%rbp), %rax
	movq	%rcx, %rsi
	movq	%rax, %rdi
	call	memcpy@PLT
	.loc 1 544 0
	movl	-36(%rbp), %esi
	movl	-36(%rbp), %eax
	movq	channel_list@GOTPCREL(%rip), %rcx
	movslq	%eax,%rdx
	movq	%rdx, %rax
	salq	$2, %rax
	addq	%rdx, %rax
	addq	%rax, %rax
	addq	%rdx, %rax
	salq	$3, %rax
	addq	%rcx, %rax
	addq	$16, %rax
	movl	4(%rax), %eax
	movl	%eax, %ecx
	addl	-52(%rbp), %ecx
	movq	channel_list@GOTPCREL(%rip), %rbx
	movslq	%esi,%rdx
	movq	%rdx, %rax
	salq	$2, %rax
	addq	%rdx, %rax
	addq	%rax, %rax
	addq	%rdx, %rax
	salq	$3, %rax
	addq	%rbx, %rax
	addq	$16, %rax
	movl	%ecx, 4(%rax)
	.loc 1 547 0
	movq	-32(%rbp), %rax
	movl	8(%rax), %eax
	subl	-52(%rbp), %eax
	movl	%eax, -20(%rbp)
	.loc 1 548 0
	cmpl	$0, -20(%rbp)
	jle	.L122
	.loc 1 549 0
	movl	-20(%rbp), %eax
	movslq	%eax,%rdx
	movq	-32(%rbp), %rax
	movq	(%rax), %rcx
	movl	-52(%rbp), %eax
	cltq
	addq	%rax, %rcx
	movq	-32(%rbp), %rax
	movq	(%rax), %rax
	movq	%rcx, %rsi
	movq	%rax, %rdi
	call	memmove@PLT
.L122:
	.loc 1 551 0
	movq	-32(%rbp), %rax
	movl	-20(%rbp), %edx
	movl	%edx, 8(%rax)
	.loc 1 553 0
	movl	-52(%rbp), %eax
.L118:
	.loc 1 554 0
	addq	$56, %rsp
	popq	%rbx
	leave
	ret
	.cfi_endproc
.LFE13:
	.size	nbb_read_bytes, .-nbb_read_bytes
	.section	.rodata
.LC50:
	.string	"slot >= 0 && slot < 15"
	.text
.globl nbb_bytes_available
	.type	nbb_bytes_available, @function
nbb_bytes_available:
.LFB14:
	.loc 1 557 0
	.cfi_startproc
	pushq	%rbp
.LCFI28:
	.cfi_def_cfa_offset 16
	movq	%rsp, %rbp
	.cfi_offset 6, -16
.LCFI29:
	.cfi_def_cfa_register 6
	subq	$16, %rsp
	movl	%edi, -4(%rbp)
	.loc 1 559 0
	cmpl	$0, -4(%rbp)
	js	.L125
	cmpl	$14, -4(%rbp)
	jle	.L126
.L125:
	leaq	__PRETTY_FUNCTION__.4047(%rip), %rcx
	movl	$559, %edx
	leaq	.LC0(%rip), %rsi
	leaq	.LC50(%rip), %rdi
	call	__assert_fail@PLT
.L126:
	.loc 1 560 0
	movl	-4(%rbp), %eax
	movq	delay_buffers@GOTPCREL(%rip), %rcx
	movslq	%eax,%rdx
	movq	%rdx, %rax
	addq	%rax, %rax
	addq	%rdx, %rax
	salq	$3, %rax
	movl	8(%rax,%rcx), %eax
	.loc 1 561 0
	leave
	ret
	.cfi_endproc
.LFE14:
	.size	nbb_bytes_available, .-nbb_bytes_available
.globl nbb_bytes_read
	.type	nbb_bytes_read, @function
nbb_bytes_read:
.LFB15:
	.loc 1 564 0
	.cfi_startproc
	pushq	%rbp
.LCFI30:
	.cfi_def_cfa_offset 16
	movq	%rsp, %rbp
	.cfi_offset 6, -16
.LCFI31:
	.cfi_def_cfa_register 6
	subq	$16, %rsp
	movl	%edi, -4(%rbp)
	.loc 1 565 0
	cmpl	$0, -4(%rbp)
	js	.L129
	cmpl	$14, -4(%rbp)
	jle	.L130
.L129:
	leaq	__PRETTY_FUNCTION__.4056(%rip), %rcx
	movl	$565, %edx
	leaq	.LC0(%rip), %rsi
	leaq	.LC50(%rip), %rdi
	call	__assert_fail@PLT
.L130:
	.loc 1 566 0
	movl	-4(%rbp), %eax
	movq	channel_list@GOTPCREL(%rip), %rcx
	movslq	%eax,%rdx
	movq	%rdx, %rax
	salq	$2, %rax
	addq	%rdx, %rax
	addq	%rax, %rax
	addq	%rdx, %rax
	salq	$3, %rax
	addq	%rcx, %rax
	addq	$16, %rax
	movl	4(%rax), %eax
	.loc 1 567 0
	leave
	ret
	.cfi_endproc
.LFE15:
	.size	nbb_bytes_read, .-nbb_bytes_read
.globl nbb_bytes_written
	.type	nbb_bytes_written, @function
nbb_bytes_written:
.LFB16:
	.loc 1 570 0
	.cfi_startproc
	pushq	%rbp
.LCFI32:
	.cfi_def_cfa_offset 16
	movq	%rsp, %rbp
	.cfi_offset 6, -16
.LCFI33:
	.cfi_def_cfa_register 6
	subq	$16, %rsp
	movl	%edi, -4(%rbp)
	.loc 1 571 0
	cmpl	$0, -4(%rbp)
	js	.L133
	cmpl	$14, -4(%rbp)
	jle	.L134
.L133:
	leaq	__PRETTY_FUNCTION__.4065(%rip), %rcx
	movl	$571, %edx
	leaq	.LC0(%rip), %rsi
	leaq	.LC50(%rip), %rdi
	call	__assert_fail@PLT
.L134:
	.loc 1 572 0
	movl	-4(%rbp), %eax
	movq	channel_list@GOTPCREL(%rip), %rcx
	movslq	%eax,%rdx
	movq	%rdx, %rax
	salq	$2, %rax
	addq	%rdx, %rax
	addq	%rax, %rax
	addq	%rdx, %rax
	salq	$3, %rax
	addq	%rcx, %rax
	addq	$32, %rax
	movl	12(%rax), %eax
	.loc 1 573 0
	leave
	ret
	.cfi_endproc
.LFE16:
	.size	nbb_bytes_written, .-nbb_bytes_written
	.section	.rodata
	.align 8
.LC51:
	.string	"array_to_flush != ((void *)0) && size >= 0"
	.text
.globl nbb_flush_shm
	.type	nbb_flush_shm, @function
nbb_flush_shm:
.LFB17:
	.loc 1 576 0
	.cfi_startproc
	pushq	%rbp
.LCFI34:
	.cfi_def_cfa_offset 16
	movq	%rsp, %rbp
	.cfi_offset 6, -16
.LCFI35:
	.cfi_def_cfa_register 6
	subq	$48, %rsp
	movl	%edi, -20(%rbp)
	movq	%rsi, -32(%rbp)
	movl	%edx, -36(%rbp)
	.loc 1 577 0
	cmpl	$0, -20(%rbp)
	js	.L137
	cmpl	$14, -20(%rbp)
	jle	.L138
.L137:
	leaq	__PRETTY_FUNCTION__.4076(%rip), %rcx
	movl	$577, %edx
	leaq	.LC0(%rip), %rsi
	leaq	.LC50(%rip), %rdi
	call	__assert_fail@PLT
.L138:
	.loc 1 578 0
	cmpq	$0, -32(%rbp)
	je	.L139
	cmpl	$0, -36(%rbp)
	jns	.L140
.L139:
	leaq	__PRETTY_FUNCTION__.4076(%rip), %rcx
	movl	$578, %edx
	leaq	.LC0(%rip), %rsi
	leaq	.LC51(%rip), %rdi
	call	__assert_fail@PLT
.L140:
	.loc 1 580 0
	cmpl	$0, -36(%rbp)
	je	.L146
.L141:
	.loc 1 583 0
	movl	-20(%rbp), %eax
	movslq	%eax,%rdx
	movq	%rdx, %rax
	addq	%rax, %rax
	addq	%rdx, %rax
	salq	$3, %rax
	movq	%rax, %rdx
	movq	delay_buffers@GOTPCREL(%rip), %rax
	leaq	(%rdx,%rax), %rax
	movq	%rax, -16(%rbp)
	.loc 1 584 0
	movq	-16(%rbp), %rax
	movl	8(%rax), %eax
	addl	-36(%rbp), %eax
	movl	%eax, -4(%rbp)
	.loc 1 587 0
	movq	-16(%rbp), %rax
	movl	12(%rax), %eax
	cmpl	-4(%rbp), %eax
	jge	.L143
	.loc 1 589 0
	movq	-16(%rbp), %rax
	movl	12(%rax), %eax
	testl	%eax, %eax
	jne	.L144
	.loc 1 590 0
	movq	-16(%rbp), %rax
	movl	$1000, 12(%rax)
.L144:
	.loc 1 592 0
	movq	-16(%rbp), %rax
	movl	12(%rax), %eax
	addl	%eax, %eax
	movslq	%eax,%rdx
	movq	-16(%rbp), %rax
	movq	(%rax), %rax
	movq	%rdx, %rsi
	movq	%rax, %rdi
	call	realloc@PLT
	movq	%rax, %rdx
	movq	-16(%rbp), %rax
	movq	%rdx, (%rax)
	.loc 1 593 0
	movq	-16(%rbp), %rax
	movl	12(%rax), %eax
	leal	(%rax,%rax), %edx
	movq	-16(%rbp), %rax
	movl	%edx, 12(%rax)
.L143:
	.loc 1 597 0
	movl	-36(%rbp), %eax
	movslq	%eax,%rdx
	movq	-16(%rbp), %rax
	movq	(%rax), %rcx
	movq	-16(%rbp), %rax
	movl	8(%rax), %eax
	cltq
	addq	%rax, %rcx
	movq	-32(%rbp), %rax
	movq	%rax, %rsi
	movq	%rcx, %rdi
	call	memcpy@PLT
	.loc 1 598 0
	movq	-16(%rbp), %rax
	movl	-4(%rbp), %edx
	movl	%edx, 8(%rax)
	jmp	.L145
.L146:
	.loc 1 581 0
	nop
.L145:
	.loc 1 602 0
	leave
	ret
	.cfi_endproc
.LFE17:
	.size	nbb_flush_shm, .-nbb_flush_shm
	.section	.rodata
	.align 8
.LC52:
	.string	"channel_id >= 0 && channel_id < 15"
	.align 8
.LC53:
	.string	"ptr_to_item != ((void *)0) && size >= 0"
.LC54:
	.string	"else..."
	.align 8
.LC55:
	.string	"poff: %d psize: %d size: %zu bsize: %d\n"
	.text
.globl nbb_insert_item
	.type	nbb_insert_item, @function
nbb_insert_item:
.LFB18:
	.loc 1 605 0
	.cfi_startproc
	pushq	%rbp
.LCFI36:
	.cfi_def_cfa_offset 16
	movq	%rsp, %rbp
	.cfi_offset 6, -16
.LCFI37:
	.cfi_def_cfa_register 6
	pushq	%rbx
	subq	$72, %rsp
	movl	%edi, -52(%rbp)
	movq	%rsi, -64(%rbp)
	movq	%rdx, -72(%rbp)
	.loc 1 606 0
	cmpl	$0, -52(%rbp)
	js	.L148
	.cfi_offset 3, -24
	cmpl	$14, -52(%rbp)
	jle	.L149
.L148:
	leaq	__PRETTY_FUNCTION__.4114(%rip), %rcx
	movl	$606, %edx
	leaq	.LC0(%rip), %rsi
	leaq	.LC52(%rip), %rdi
	call	__assert_fail@PLT
.L149:
	.loc 1 607 0
	cmpq	$0, -64(%rbp)
	jne	.L150
	leaq	__PRETTY_FUNCTION__.4114(%rip), %rcx
	movl	$607, %edx
	leaq	.LC0(%rip), %rsi
	leaq	.LC53(%rip), %rdi
	call	__assert_fail@PLT
.L150:
	.loc 1 609 0
	movl	-52(%rbp), %eax
	movq	channel_list@GOTPCREL(%rip), %rcx
	movslq	%eax,%rdx
	movq	%rdx, %rax
	salq	$2, %rax
	addq	%rdx, %rax
	addq	%rax, %rax
	addq	%rdx, %rax
	salq	$3, %rax
	addq	%rcx, %rax
	addq	$16, %rax
	movq	8(%rax), %rax
	movq	%rax, -32(%rbp)
	.loc 1 610 0
	movl	-52(%rbp), %eax
	movq	channel_list@GOTPCREL(%rip), %rcx
	movslq	%eax,%rdx
	movq	%rdx, %rax
	salq	$2, %rax
	addq	%rdx, %rax
	addq	%rax, %rax
	addq	%rdx, %rax
	salq	$3, %rax
	addq	%rcx, %rax
	addq	$32, %rax
	movq	(%rax), %rax
	movq	%rax, -40(%rbp)
	.loc 1 612 0
	movq	-32(%rbp), %rax
	movzwl	(%rax), %eax
	movw	%ax, -18(%rbp)
	.loc 1 614 0
	cmpl	$0, -52(%rbp)
	js	.L151
	cmpl	$14, -52(%rbp)
	jle	.L152
.L151:
	leaq	__PRETTY_FUNCTION__.4114(%rip), %rcx
	movl	$614, %edx
	leaq	.LC0(%rip), %rsi
	leaq	.LC52(%rip), %rdi
	call	__assert_fail@PLT
.L152:
	.loc 1 615 0
	cmpq	$0, -64(%rbp)
	jne	.L153
	leaq	__PRETTY_FUNCTION__.4114(%rip), %rcx
	movl	$615, %edx
	leaq	.LC0(%rip), %rsi
	leaq	.LC53(%rip), %rdi
	call	__assert_fail@PLT
.L153:
	.loc 1 617 0
	movq	-32(%rbp), %rax
	movzwl	6(%rax), %eax
	movzwl	%ax, %edx
	movzwl	-18(%rbp), %eax
	movl	%edx, %ecx
	subl	%eax, %ecx
	movl	%ecx, %eax
	cmpl	$512, %eax
	jne	.L154
	.loc 1 618 0
	movl	$1, %eax
	jmp	.L155
.L154:
	.loc 1 621 0
	movq	-32(%rbp), %rax
	movzwl	6(%rax), %eax
	movzwl	%ax, %edx
	movzwl	-18(%rbp), %eax
	movl	%edx, %ebx
	subl	%eax, %ebx
	movl	%ebx, %eax
	cmpl	$511, %eax
	jne	.L156
	.loc 1 622 0
	movl	$2, %eax
	jmp	.L155
.L156:
	.loc 1 631 0
	movq	-32(%rbp), %rax
	leaq	14(%rax), %rcx
	movq	-32(%rbp), %rax
	movzwl	6(%rax), %eax
	shrw	%ax
	movzwl	%ax, %eax
	leal	-1(%rax), %edx
	movl	%edx, %eax
	sarl	$31, %eax
	shrl	$24, %eax
	addl	%eax, %edx
	andl	$255, %edx
	movl	%edx, %ebx
	subl	%eax, %ebx
	movl	%ebx, %eax
	cltq
	salq	$2, %rax
	leaq	(%rcx,%rax), %rax
	movq	%rax, -48(%rbp)
	.loc 1 635 0
	movq	-32(%rbp), %rax
	movzwl	6(%rax), %eax
	testw	%ax, %ax
	jne	.L157
	.loc 1 636 0
	movl	$0, -24(%rbp)
	jmp	.L158
.L157:
	.loc 1 638 0
	movq	-48(%rbp), %rax
	movzwl	(%rax), %eax
	movzwl	%ax, %edx
	movq	-48(%rbp), %rax
	movzwl	2(%rax), %eax
	movzwl	%ax, %eax
	leal	(%rdx,%rax), %eax
	cltq
	movq	%rax, %rdx
	addq	-72(%rbp), %rdx
	movq	-32(%rbp), %rax
	movzwl	12(%rax), %eax
	movzwl	%ax, %eax
	cmpq	%rax, %rdx
	jae	.L159
	.loc 1 639 0
	movq	-48(%rbp), %rax
	movzwl	(%rax), %eax
	movzwl	%ax, %edx
	movq	-48(%rbp), %rax
	movzwl	2(%rax), %eax
	movzwl	%ax, %eax
	leal	(%rdx,%rax), %eax
	movl	%eax, -24(%rbp)
	jmp	.L158
.L159:
	.loc 1 644 0
	movq	-32(%rbp), %rax
	movzwl	2(%rax), %eax
	shrw	%ax
	movzwl	%ax, %eax
	movzbl	%al,%edx
	movq	-32(%rbp), %rax
	movslq	%edx,%rdx
	movzwl	14(%rax,%rdx,4), %eax
	movzwl	%ax, %eax
	cmpq	-72(%rbp), %rax
	jbe	.L160
	.loc 1 645 0
	movl	$0, -24(%rbp)
	jmp	.L158
.L160:
	.loc 1 649 0
	leaq	.LC54(%rip), %rdi
	call	puts@PLT
	.loc 1 651 0
	movq	-32(%rbp), %rax
	movzwl	12(%rax), %eax
	.loc 1 650 0
	movzwl	%ax, %esi
	.loc 1 651 0
	movq	-48(%rbp), %rax
	movzwl	2(%rax), %eax
	.loc 1 650 0
	movzwl	%ax, %edx
	movq	-48(%rbp), %rax
	movzwl	(%rax), %eax
	movzwl	%ax, %ebx
	leaq	.LC55(%rip), %rax
	movq	-72(%rbp), %rcx
	movl	%esi, %r8d
	movl	%ebx, %esi
	movq	%rax, %rdi
	movl	$0, %eax
	call	printf@PLT
	.loc 1 652 0
	movl	$1, %eax
	jmp	.L155
.L158:
	.loc 1 656 0
	movq	-32(%rbp), %rax
	movzwl	6(%rax), %eax
	leal	1(%rax), %edx
	movq	-32(%rbp), %rax
	movw	%dx, 4(%rax)
	.loc 1 659 0
	movl	-24(%rbp), %eax
	cltq
	addq	-40(%rbp), %rax
	movq	-72(%rbp), %rdx
	movq	-64(%rbp), %rcx
	movq	%rcx, %rsi
	movq	%rax, %rdi
	call	memcpy@PLT
	.loc 1 662 0
	movq	-32(%rbp), %rax
	movzwl	6(%rax), %eax
	shrw	%ax
	movzwl	%ax, %eax
	movzbl	%al,%edx
	movl	-24(%rbp), %eax
	movl	%eax, %ecx
	movq	-32(%rbp), %rax
	movslq	%edx,%rdx
	movw	%cx, 14(%rax,%rdx,4)
	.loc 1 663 0
	movq	-32(%rbp), %rax
	movzwl	6(%rax), %eax
	shrw	%ax
	movzwl	%ax, %eax
	movzbl	%al,%edx
	movq	-72(%rbp), %rax
	movl	%eax, %ecx
	movq	-32(%rbp), %rax
	movslq	%edx,%rdx
	movw	%cx, 16(%rax,%rdx,4)
	.loc 1 666 0
	movq	-32(%rbp), %rax
	movzwl	6(%rax), %eax
	leal	2(%rax), %edx
	movq	-32(%rbp), %rax
	movw	%dx, 4(%rax)
	.loc 1 673 0
	movq	-32(%rbp), %rax
	movzwl	4(%rax), %edx
	movq	-32(%rbp), %rax
	movw	%dx, 6(%rax)
	.loc 1 675 0
	movq	-64(%rbp), %rax
	movl	$8, %edx
	movq	%rax, %rsi
	leaq	.LC22(%rip), %rdi
	call	memcmp@PLT
	testl	%eax, %eax
	je	.L161
	.loc 1 676 0
	movl	-52(%rbp), %esi
	movl	-52(%rbp), %eax
	movq	channel_list@GOTPCREL(%rip), %rcx
	movslq	%eax,%rdx
	movq	%rdx, %rax
	salq	$2, %rax
	addq	%rdx, %rax
	addq	%rax, %rax
	addq	%rdx, %rax
	salq	$3, %rax
	addq	%rcx, %rax
	addq	$32, %rax
	movl	12(%rax), %eax
	movl	%eax, %edx
	movq	-72(%rbp), %rax
	leal	(%rdx,%rax), %eax
	subl	$1, %eax
	movl	%eax, %ecx
	movq	channel_list@GOTPCREL(%rip), %rbx
	movslq	%esi,%rdx
	movq	%rdx, %rax
	salq	$2, %rax
	addq	%rdx, %rax
	addq	%rax, %rax
	addq	%rdx, %rax
	salq	$3, %rax
	addq	%rbx, %rax
	addq	$32, %rax
	movl	%ecx, 12(%rax)
.L161:
	.loc 1 679 0
	movl	$0, %eax
.L155:
	.loc 1 680 0
	addq	$72, %rsp
	popq	%rbx
	leave
	ret
	.cfi_endproc
.LFE18:
	.size	nbb_insert_item, .-nbb_insert_item
	.section	.rodata
	.align 8
.LC56:
	.string	"ptr_to_item != ((void *)0) && size != ((void *)0)"
	.align 8
.LC57:
	.string	"! nbb_read_item(): invalid channel_id %d\n"
	.text
.globl nbb_read_item
	.type	nbb_read_item, @function
nbb_read_item:
.LFB19:
	.loc 1 683 0
	.cfi_startproc
	pushq	%rbp
.LCFI38:
	.cfi_def_cfa_offset 16
	movq	%rsp, %rbp
	.cfi_offset 6, -16
.LCFI39:
	.cfi_def_cfa_register 6
	subq	$64, %rsp
	movl	%edi, -36(%rbp)
	movq	%rsi, -48(%rbp)
	movq	%rdx, -56(%rbp)
	.loc 1 684 0
	movl	-36(%rbp), %eax
	movq	channel_list@GOTPCREL(%rip), %rcx
	movslq	%eax,%rdx
	movq	%rdx, %rax
	salq	$2, %rax
	addq	%rdx, %rax
	addq	%rax, %rax
	addq	%rdx, %rax
	salq	$3, %rax
	movq	(%rax,%rcx), %rax
	movq	%rax, -16(%rbp)
	.loc 1 685 0
	movl	-36(%rbp), %eax
	movq	channel_list@GOTPCREL(%rip), %rcx
	movslq	%eax,%rdx
	movq	%rdx, %rax
	salq	$2, %rax
	addq	%rdx, %rax
	addq	%rax, %rax
	addq	%rdx, %rax
	salq	$3, %rax
	movq	8(%rax,%rcx), %rax
	movq	%rax, -24(%rbp)
	.loc 1 686 0
	movq	-16(%rbp), %rax
	movzwl	4(%rax), %eax
	movw	%ax, -2(%rbp)
	.loc 1 688 0
	cmpl	$0, -36(%rbp)
	js	.L164
	cmpl	$14, -36(%rbp)
	jle	.L165
.L164:
	leaq	__PRETTY_FUNCTION__.4225(%rip), %rcx
	movl	$688, %edx
	leaq	.LC0(%rip), %rsi
	leaq	.LC52(%rip), %rdi
	call	__assert_fail@PLT
.L165:
	.loc 1 689 0
	cmpq	$0, -48(%rbp)
	je	.L166
	cmpq	$0, -56(%rbp)
	jne	.L167
.L166:
	leaq	__PRETTY_FUNCTION__.4225(%rip), %rcx
	movl	$689, %edx
	leaq	.LC0(%rip), %rsi
	leaq	.LC56(%rip), %rdi
	call	__assert_fail@PLT
.L167:
	.loc 1 691 0
	movq	-48(%rbp), %rax
	movq	$0, (%rax)
	.loc 1 692 0
	movq	-56(%rbp), %rax
	movq	$0, (%rax)
	.loc 1 694 0
	cmpl	$0, -36(%rbp)
	jns	.L168
	.loc 1 695 0
	leaq	.LC57(%rip), %rax
	movl	-36(%rbp), %edx
	movl	%edx, %esi
	movq	%rax, %rdi
	movl	$0, %eax
	call	printf@PLT
	.loc 1 696 0
	movl	$-1, %eax
	jmp	.L169
.L168:
	.loc 1 704 0
	movq	-16(%rbp), %rax
	movzwl	2(%rax), %eax
	cmpw	-2(%rbp), %ax
	jne	.L170
	.loc 1 705 0
	movl	$3, %eax
	jmp	.L169
.L170:
	.loc 1 708 0
	movzwl	-2(%rbp), %edx
	movq	-16(%rbp), %rax
	movzwl	2(%rax), %eax
	movzwl	%ax, %eax
	movl	%edx, %ecx
	subl	%eax, %ecx
	movl	%ecx, %eax
	cmpl	$1, %eax
	jne	.L171
	.loc 1 709 0
	movl	$4, %eax
	jmp	.L169
.L171:
	.loc 1 712 0
	movq	-16(%rbp), %rax
	movzwl	2(%rax), %eax
	leal	1(%rax), %edx
	movq	-16(%rbp), %rax
	movw	%dx, (%rax)
	.loc 1 716 0
	movq	-16(%rbp), %rax
	leaq	14(%rax), %rdx
	movq	-16(%rbp), %rax
	movzwl	2(%rax), %eax
	shrw	%ax
	movzwl	%ax, %eax
	andl	$255, %eax
	salq	$2, %rax
	leaq	(%rdx,%rax), %rax
	movq	%rax, -32(%rbp)
	.loc 1 717 0
	movq	-32(%rbp), %rax
	movzwl	2(%rax), %eax
	movzwl	%ax, %eax
	movq	%rax, %rdi
	call	malloc@PLT
	movq	%rax, %rdx
	movq	-48(%rbp), %rax
	movq	%rdx, (%rax)
	.loc 1 718 0
	movq	-32(%rbp), %rax
	movzwl	2(%rax), %eax
	movzwl	%ax, %edx
	movq	-32(%rbp), %rax
	movzwl	(%rax), %eax
	movzwl	%ax, %eax
	movq	%rax, %rcx
	addq	-24(%rbp), %rcx
	movq	-48(%rbp), %rax
	movq	(%rax), %rax
	movq	%rcx, %rsi
	movq	%rax, %rdi
	call	memcpy@PLT
	.loc 1 719 0
	movq	-32(%rbp), %rax
	movzwl	2(%rax), %eax
	movzwl	%ax, %edx
	movq	-56(%rbp), %rax
	movq	%rdx, (%rax)
	.loc 1 723 0
	movq	-16(%rbp), %rax
	movzwl	2(%rax), %eax
	leal	2(%rax), %edx
	movq	-16(%rbp), %rax
	movw	%dx, (%rax)
	.loc 1 724 0
	movq	-16(%rbp), %rax
	movzwl	(%rax), %edx
	movq	-16(%rbp), %rax
	movw	%dx, 2(%rax)
	.loc 1 726 0
	movl	$0, %eax
.L169:
	.loc 1 727 0
	leave
	ret
	.cfi_endproc
.LFE19:
	.size	nbb_read_item, .-nbb_read_item
	.section	.rodata
	.type	__PRETTY_FUNCTION__.4225, @object
	.size	__PRETTY_FUNCTION__.4225, 14
__PRETTY_FUNCTION__.4225:
	.string	"nbb_read_item"
	.align 16
	.type	__PRETTY_FUNCTION__.4114, @object
	.size	__PRETTY_FUNCTION__.4114, 16
__PRETTY_FUNCTION__.4114:
	.string	"nbb_insert_item"
	.type	__PRETTY_FUNCTION__.4076, @object
	.size	__PRETTY_FUNCTION__.4076, 14
__PRETTY_FUNCTION__.4076:
	.string	"nbb_flush_shm"
	.align 16
	.type	__PRETTY_FUNCTION__.4065, @object
	.size	__PRETTY_FUNCTION__.4065, 18
__PRETTY_FUNCTION__.4065:
	.string	"nbb_bytes_written"
	.type	__PRETTY_FUNCTION__.4056, @object
	.size	__PRETTY_FUNCTION__.4056, 15
__PRETTY_FUNCTION__.4056:
	.string	"nbb_bytes_read"
	.align 16
	.type	__PRETTY_FUNCTION__.4047, @object
	.size	__PRETTY_FUNCTION__.4047, 20
__PRETTY_FUNCTION__.4047:
	.string	"nbb_bytes_available"
	.type	__PRETTY_FUNCTION__.3999, @object
	.size	__PRETTY_FUNCTION__.3999, 15
__PRETTY_FUNCTION__.3999:
	.string	"nbb_read_bytes"
	.align 16
	.type	__PRETTY_FUNCTION__.3963, @object
	.size	__PRETTY_FUNCTION__.3963, 18
__PRETTY_FUNCTION__.3963:
	.string	"nbb_close_channel"
	.align 16
	.type	__PRETTY_FUNCTION__.3758, @object
	.size	__PRETTY_FUNCTION__.3758, 16
__PRETTY_FUNCTION__.3758:
	.string	"nbb_write_bytes"
	.type	__PRETTY_FUNCTION__.3726, @object
	.size	__PRETTY_FUNCTION__.3726, 14
__PRETTY_FUNCTION__.3726:
	.string	"nbb_set_owner"
	.align 16
	.type	__PRETTY_FUNCTION__.3700, @object
	.size	__PRETTY_FUNCTION__.3700, 20
__PRETTY_FUNCTION__.3700:
	.string	"nbb_set_cb_new_data"
	.align 16
	.type	__PRETTY_FUNCTION__.3671, @object
	.size	__PRETTY_FUNCTION__.3671, 26
__PRETTY_FUNCTION__.3671:
	.string	"nbb_set_cb_new_connection"
	.align 16
	.type	__PRETTY_FUNCTION__.3600, @object
	.size	__PRETTY_FUNCTION__.3600, 20
__PRETTY_FUNCTION__.3600:
	.string	"nbb_connect_service"
	.align 16
	.type	__PRETTY_FUNCTION__.3536, @object
	.size	__PRETTY_FUNCTION__.3536, 17
__PRETTY_FUNCTION__.3536:
	.string	"nbb_init_service"
	.align 16
	.type	__PRETTY_FUNCTION__.3491, @object
	.size	__PRETTY_FUNCTION__.3491, 23
__PRETTY_FUNCTION__.3491:
	.string	"nbb_nameserver_connect"
	.text
.Letext0:
	.section	.note.GNU-stack,"",@progbits
